(dp0
(VTrack/TrackVertexMonitor/twoprong IP chi2 per dof
p1
((S'func'
p2
S'var'
p3
tp4
(g2
S'kurt'
p5
tp6
tp7
tp8
(lp9
S'gauss'
p10
as(VMuon/MuEffMonitor/m_RegionsEff_den
p11
(g6
(S'distance'
p12
S'variational_distance'
p13
tp14
tp15
tp16
(lp17
g10
as(VTrack/TrackVertexMonitor/PV left-Left half y
p18
((g2
S'skew'
p19
tp20
g6
tp21
tp22
(lp23
g10
as(VTrack/TrackPV2HalfAlignMonitor/Left-Right PV delta x
p24
((g2
S'mean'
p25
tp26
g20
tp27
tp28
(lp29
g10
as(VJpsiDQMonitorPlots.MassPlotTool/peak/M_J_psi_1S
p30
g27
tp31
(lp32
g10
as(VPROTO/ChargedProtoANNPIDMoni/Upstream/PionANN
p33
(g4
g14
tp34
tp35
(lp36
S'check'
p37
as(VOT/OTTimeMonitor/301
p38
(g4
(g12
S'kolmogorov_smirnov_statistic'
p39
tp40
tp41
tp42
(lp43
g37
as(VRICH/RichRecPixelClusters/Rich2/clusterSize
p44
(g14
g40
tp45
tp46
(lp47
S'line_gauss'
p48
aS'line'
p49
as(VTrack/TrackMonitor/Velo/ghostProb
p50
(g20
g40
tp51
tp52
(lp53
g37
as(VRichLambdaToPrPiSelPlots.MassPlotTool/all/M_Lambda~0
p54
(g26
g4
tp55
tp56
(lp57
g10
as(VTrack/TrackMonitor/Long/chi2PerDofMatch
p58
g34
tp59
(lp60
g10
as(VTrack/TrackMonitor/Long/ITResidual
p61
g34
tp62
(lp63
g37
as(VPROTO/ChargedProtoANNPIDMoni/Long/KaonANN
p64
(g6
g40
tp65
tp66
(lp67
g10
as(VOT/OTTimeMonitor/1
p68
g34
tp69
(lp70
g37
as(VTrack/TrackVeloOverlapMonitor/residualAR
p71
g65
tp72
(lp73
g10
as(VMuon/MuonPID/MonitorLong/hIMMomentum
p74
g41
tp75
(lp76
g37
as(VTrack/TrackVertexMonitor/track IP X
p77
g45
tp78
(lp79
g48
ag49
as(VPROTO/ChargedProtoANNPIDMoni/Long/MuonANN
p80
(g26
g14
tp81
tp82
(lp83
g10
as(VVelo/VeloClusterMonitor/Cluster ADC value (R)
p84
(g20
g14
tp85
tp86
(lp87
g37
as(VTrack/TTTrackMonitor/TTbX/Overlap residual
p88
g41
tp89
(lp90
g10
as(g88
(g26
g40
tp91
tp92
(lp93
g37
as(VTrack/TrackVertexMonitor/NumTracksPerPV
p94
g21
tp95
(lp96
g10
as(VTrack/TrackVeloOverlapMonitor/residualAPhi
p97
g81
tp98
(lp99
g37
as(VCaloMoniDst/ResolvedPi0Mon/6
p100
g81
tp101
(lp102
g10
as(VTrack/TrackVeloOverlapMonitor/residualCPhi
p103
g51
tp104
(lp105
g37
as(VRICH/RichRecPixelClusters/Rich1/clusterSize
p106
g15
tp107
(lp108
g37
as(g50
g91
tp109
(lp110
g37
as(VTrack/TrackMonitor/Upstream/ghostProb
p111
g34
tp112
(lp113
g37
as(VMuIDJpsiPlot/probe/P
p114
g81
tp115
(lp116
g10
as(VTrack/TrackMonitor/Long/3
p117
g51
tp118
(lp119
g10
as(g24
(g26
g6
tp120
tp121
(lp122
g10
as(VPROTO/ChargedProtoANNPIDMoni/Long/PionANN
p123
(g4
g20
tp124
tp125
(lp126
g10
as(g114
g7
tp127
(lp128
g10
as(VMakeDstSel.MotherPlots/Mass
p129
g45
tp130
(lp131
g48
ag49
as(VMakeDstSel.MotherPlots/#Delta Mass
p132
g124
tp133
(lp134
g10
as(VCaloMoniDst/PhotonMatchMon/2
p135
g55
tp136
(lp137
g10
as(VPROTO/ChargedProtoANNPIDMoni/Upstream/GhostANN
p138
g34
tp139
(lp140
g37
as(VTrack/TrackVeloOverlapMonitor/overlapResidualPhi
p141
g91
tp142
(lp143
g37
as(VEfficiency/Chamber efficiency per Region
p144
((g2
g19
tp145
(g2
g5
tp146
tp147
tp148
(lp149
g10
as(VTrack/TrackVertexMonitor/PV chisquare per dof
p150
g91
tp151
(lp152
g37
as(VTrack/TrackMonitor/Long/112
p153
g65
tp154
(lp155
g10
as(g30
g7
tp156
(lp157
g10
as(VTrack/TrackMonitor/Long/125
p158
g21
tp159
(lp160
g10
as(VPROTO/ChargedProtoANNPIDMoni/Upstream/ProtonANN
p161
g91
tp162
(lp163
g37
as(VMuIDLambdaPlot/proton/Chg
p164
g81
tp165
(lp166
S'nothing'
p167
as(VTrack/TrackMonitor/Long/OTResidual
p168
g55
tp169
(lp170
g10
as(VPROTO/ChargedProtoANNPIDMoni/Downstream/MuonANN
p171
g120
tp172
(lp173
g10
as(g77
g34
tp174
(lp175
g10
as(g94
g51
tp176
(lp177
g37
as(g44
g41
tp178
(lp179
g10
as(VRICH/RichRecPixelQC/Rich1/nTotalPixs
p180
g51
tp181
(lp182
g10
as(VRICH/RiLongTrkEff/All/effVP
p183
((g12
S'variational'
p184
tp185
(g12
S'kolmogorov'
p186
tp187
tp188
tp189
(lp190
g48
ag49
as(g180
g91
tp191
(lp192
g37
as(VRichDstarToD0PiSelPlots.MassPlotTool/all/M_D~0
p193
g45
tp194
(lp195
g48
ag49
as(VPROTO/ChargedProtoANNPIDMoni/Downstream/ProtonANN
p196
((S'func'
p197
S'var'
p198
tp199
(S'distance'
p200
S'variational_distance'
p201
tp202
tp203
tp204
(lp205
S'gauss'
p206
as(VTrack/TrackVertexMonitor/NumBackTracksPerPV
p207
g27
tp208
(lp209
g10
as(g164
g91
tp210
(lp211
g167
as(VTrack/TrackMonitor/Downstream/ghostProb
p212
g7
tp213
(lp214
g10
as(VMakeDstSel.DaughtersPlots/Mass(D~0)
p215
g81
tp216
(lp217
g10
as(g153
g34
tp218
(lp219
g10
as(g123
g21
tp220
(lp221
g10
as(VTrack/TrackMonitor/Long/ghostProb
p222
((S'func'
p223
S'kurt'
p224
tp225
(S'distance'
p226
S'kolmogorov_smirnov_statistic'
p227
tp228
tp229
tp230
(lp231
S'check'
p232
as(VOT/OTTrackMonitor/station2/residualgood
p233
g45
tp234
(lp235
g48
ag49
as(g54
g51
tp236
(lp237
g10
as(VTrack/TrackVertexMonitor/fast track IP Y vs eta
p238
g188
tp239
(lp240
g48
ag49
as(VTrack/TrackVertexMonitor/PV z position
p241
g55
tp242
(lp243
S'mixture_gauss'
p244
as(VMuIDLambdaPlot/proton/P
p245
g27
tp246
(lp247
g10
as(VPROTO/ChargedProtoANNPIDMoni/Upstream/ElectronANN
p248
g51
tp249
(lp250
g10
as(VVelo/VeloClusterMonitor/Cluster size
p251
g27
tp252
(lp253
g10
as(VTrack/TTTrackMonitor/TTbV/Overlap residual
p254
g91
tp255
(lp256
g37
as(VRichKsToPiPiSelPlots.MassPlotTool/all/M_KS0
p257
g51
tp258
(lp259
g10
as(VMuon/MuonPID/MonitorLong/hNIMvsYM2
p260
g91
tp261
(lp262
g10
as(VVelo/VeloClusterMonitor/# VELO clusters
p263
g81
tp264
(lp265
g10
as(VTrack/TrackMonitor/Long/6
p266
g65
tp267
(lp268
g10
as(VTrack/TrackMonitor/Long/2
p269
g15
tp270
(lp271
g37
as(g18
g55
tp272
(lp273
g244
as(VTrack/TrackITOverlapMonitor/ITASideTrack/IT1TopBox/hitres
p274
g15
tp275
(lp276
g10
as(g274
g34
tp277
(lp278
g10
as(g144
((g2
g25
tp279
(g2
g3
tp280
tp281
tp282
(lp283
g10
as(VMuon/MuonPID/MonitorLong/hNShared_IM
p284
g27
tp285
(lp286
g10
as(g171
g27
tp287
(lp288
g10
as(VRichDstarToD0PiSelPlots.MassPlotTool/all/M_Dst_2010_minus
p289
g55
tp290
(lp291
g10
as(g135
g51
tp292
(lp293
g37
as(g164
g55
tp294
(lp295
g167
as(VTrack/TrackMonitor/Long/115
p296
g65
tp297
(lp298
g10
as(VOT/OTTrackMonitor/station3/residualgood
p299
((S'func'
p300
S'mean'
p301
tp302
(g300
S'kurt'
p303
tp304
tp305
tp306
(lp307
g206
as(g180
g41
tp308
(lp309
g37
as(g251
g34
tp310
(lp311
g37
as(VTrack/TrackMonitor/Long/chi2PerDofDownstream
p312
g124
tp313
(lp314
g10
as(g33
g15
tp315
(lp316
g37
as(g150
g124
tp317
(lp318
g10
as(g74
g91
tp319
(lp320
g37
as(g144
(g279
(S'eff'
p321
S'refs - runs'
p322
tp323
tp324
tp325
(lp326
g10
as(VCaloMoniDst/PhotonMatchMon/4
p327
g45
tp328
(lp329
g48
ag49
as(g245
g45
tp330
(lp331
g48
ag49
as(VCaloMoniDst/MergedPi0Mon/4
p332
g41
tp333
(lp334
g10
ag37
as(VTrack/TrackMonitor/Long/126
p335
g7
tp336
(lp337
g244
as(VTrack/TrackMonitor/Long/110
p338
g7
tp339
(lp340
g10
as(VTrack/TrackVertexMonitor/NumPrimaryVertices
p341
g34
tp342
(lp343
g10
as(VRichDstarToD0PiSelPlots.MassPlotTool/all/M_Dst_2010_plus
p344
g21
tp345
(lp346
g10
as(VTrack/TrackMonitor/Long/101
p347
g15
tp348
(lp349
g37
as(VMuon/MuonPID/MonitorLong/hNIMtracks
p350
g120
tp351
(lp352
g10
as(VTrack/TrackVertexMonitor/track IP X vs phi
p353
g188
tp354
(lp355
g48
ag49
as(g100
g27
tp356
(lp357
g10
as(VTrack/TrackMonitor/Ttrack/ghostProb
p358
g7
tp359
(lp360
g10
as(g114
g51
tp361
(lp362
g10
as(g30
g55
tp363
(lp364
g10
as(VMuIDJpsiPlot/probe/Chg
p365
g51
tp366
(lp367
g167
as(g284
g41
tp368
(lp369
g37
as(g106
g120
tp370
(lp371
g10
as(g61
g55
tp372
(lp373
g10
as(VRichDstarToD0PiSelPlots.MassPlotTool/all/M_D0
p374
g55
tp375
(lp376
g10
as(g284
g7
tp377
(lp378
g10
as(VTrack/TrackITOverlapMonitor/ITTopTrack/IT1CSideBox/hitres
p379
g124
tp380
(lp381
g10
as(VTrack/TrackVertexMonitor/PV right-Right half y
p382
g41
tp383
(lp384
g10
as(g164
g120
tp385
(lp386
g167
as(VCaloMoniDst/PhotonMatchMon/1
p387
g91
tp388
(lp389
g37
as(VTrack/TrackMonitor/Long/114
p390
g65
tp391
(lp392
g10
as(g64
g7
tp393
(lp394
g10
as(VPROTO/ChargedProtoANNPIDMoni/Downstream/ProtonANN
p395
((S'func'
p396
S'kurt'
p397
tp398
(S'distance'
p399
S'kolmogorov_smirnov_statistic'
p400
tp401
tp402
tp403
(lp404
g206
as(VPROTO/ChargedProtoANNPIDMoni/Downstream/GhostANN
p405
g51
tp406
(lp407
g37
as(VMuon/MuonPID/MonitorLong/hNIMPStracksRatio
p408
g7
tp409
(lp410
g10
as(g84
g7
tp411
(lp412
g10
as(g103
g55
tp413
(lp414
g10
as(g332
g120
tp415
(lp416
g10
as(VTT/TTClusterMonitor/Number of clusters vs TELL1
p417
g27
tp418
(lp419
g10
as(VTrack/TrackPV2HalfAlignMonitor/Left-Right PV delta z
p420
g27
tp421
(lp422
g10
as(VMuon/MuonPID/MonitorLong/hIMRegion
p423
g65
tp424
(lp425
g10
as(VRICH/RichRecPixelQC/Rich2/nTotalPixs
p426
g15
tp427
(lp428
g10
as(VCaloMoniDst/ResolvedPi0Mon/4
p429
g45
tp430
(lp431
g48
ag49
as(g100
g120
tp432
(lp433
g10
as(g61
g85
tp434
(lp435
g10
as(g161
g55
tp436
(lp437
g10
as(g335
g27
tp438
(lp439
g244
as(VRichLambdaToPrPiSelPlots.MassPlotTool/all/M_Lambda0
p440
g41
tp441
(lp442
g10
as(g251
g65
tp443
(lp444
g37
as(g215
g85
tp445
(lp446
g10
as(VTrack/TrackVertexMonitor/fast track IP Y
p447
g65
tp448
(lp449
g10
as(VMuIDJpsiPlot/probe/Pt
p450
g91
tp451
(lp452
g37
as(VTrack/TrackVertexMonitor/PV right-Right half x
p453
g55
tp454
(lp455
g10
as(g50
g81
tp456
(lp457
g37
as(VTrack/TrackVertexMonitor/track IP Y
p458
g51
tp459
(lp460
g10
as(VTrack/TrackVertexMonitor/twoprong doca
p461
g34
tp462
(lp463
g10
as(VPROTO/ChargedProtoANNPIDMoni/Long/GhostANN
p464
g55
tp465
(lp466
g10
as(g296
g15
tp467
(lp468
g10
as(VTrack/TrackMonitor/2
p469
g55
tp470
(lp471
g10
as(VTrack/TrackMonitor/Long/VeloRResidual
p472
g45
tp473
(lp474
g48
ag49
as(VOT/OTTimeMonitor/303
p475
g27
tp476
(lp477
g10
as(g248
g27
tp478
(lp479
g10
as(VPROTO/ChargedProtoANNPIDMoni/Downstream/ElectronANN
p480
g124
tp481
(lp482
g10
as(g257
g85
tp483
(lp484
g10
as(g18
g120
tp485
(lp486
g10
as(g447
g41
tp487
(lp488
g10
as(VCaloMoniDst/PhotonMatchMon/3
p489
g91
tp490
(lp491
g37
as(g472
g81
tp492
(lp493
g10
as(VTrack/TrackVeloOverlapMonitor/overlapResidualR
p494
g55
tp495
(lp496
g10
as(g111
g15
tp497
(lp498
g37
as(g193
g124
tp499
(lp500
g10
as(g469
g15
tp501
(lp502
g10
as(g344
g85
tp503
(lp504
g10
as(g30
g124
tp505
(lp506
g10
as(g327
g120
tp507
(lp508
g10
as(g341
g65
tp509
(lp510
g10
as(g260
g15
tp511
(lp512
g10
as(g344
g55
tp513
(lp514
g10
as(VTrack/TTTrackMonitor/TTaX/Overlap residual
p515
g124
tp516
(lp517
g10
as(g423
g55
tp518
(lp519
g10
as(VTrack/TrackMonitor/Long/VeloPhiResidual
p520
g45
tp521
(lp522
g48
ag49
as(VTrack/TTTrackMonitor/TTaU/Overlap residual
p523
g34
tp524
(lp525
g10
as(VTrack/TrackVertexMonitor/fast track IP X
p526
g27
tp527
(lp528
g10
as(VTrack/TrackMonitor/Long/numiter
p529
((S'distance'
p530
S'variational_distance'
p531
tp532
(g530
S'kolmogorov_smirnov_statistic'
p533
tp534
tp535
tp536
(lp537
S'line_gauss'
p538
aS'line'
p539
as(g215
g15
tp540
(lp541
g10
as(VMuon/MuonPID/MonitorLong/hIMPT
p542
g120
tp543
(lp544
g10
as(g215
g34
tp545
(lp546
g10
as(g61
g15
tp547
(lp548
g10
as(g257
g65
tp549
(lp550
g10
as(VVelo/VeloClusterMonitor/Cluster ADC value (Phi)
p551
g124
tp552
(lp553
g10
as(VTrack/TrackITOverlapMonitor/ITTopTrack/IT1ASideBox/hitres
p554
g120
tp555
(lp556
g10
as(g103
g27
tp557
(lp558
g10
as(VTrack/TrackMonitor/Long/8
p559
g51
tp560
(lp561
g37
as(g284
g21
tp562
(lp563
g10
as(g312
g41
tp564
(lp565
g10
as(VTrack/TrackMonitor/Long/chi2PerDofVelo
p566
g124
tp567
(lp568
g10
as(VTrack/TrackITOverlapMonitor/ITCSideTrack/IT1BottomBox/hitres
p569
g41
tp570
(lp571
g10
as(VOT/OTTrackMonitor/avtimeres
p572
g65
tp573
(lp574
g10
as(g515
g65
tp575
(lp576
g10
as(g30
g91
tp577
(lp578
g37
as(g423
g120
tp579
(lp580
g10
as(g515
g91
tp581
(lp582
g37
as(VOT/OTTrackMonitor/station1/residualgood
p583
g45
tp584
(lp585
g48
ag49
as(VPROTO/ChargedProtoANNPIDMoni/Downstream/PionANN
p586
g7
tp587
(lp588
g10
as(g344
g120
tp589
(lp590
g10
as(VTrack/TrackMonitor/Long/ghostProb
p591
((S'func'
p592
S'mean'
p593
tp594
(g592
S'kurt'
p595
tp596
tp597
tp598
(lp599
g206
as(VTrack/TrackITOverlapMonitor/ITBottomTrack/IT1ASideBox/hitres
p600
g81
tp601
(lp602
g10
as(VEfficiency/Chamber efficiency per Station
p603
(g145
g323
tp604
tp605
(lp606
g10
as(g30
g85
tp607
(lp608
g10
as(g365
g91
tp609
(lp610
g167
as(g284
g65
tp611
(lp612
g37
as(g374
g51
tp613
(lp614
g10
as(g447
g85
tp615
(lp616
g10
as(g365
g45
tp617
(lp618
g48
ag167
as(VTrack/TrackVertexMonitor/PV left-Left half x
p619
g91
tp620
(lp621
g167
as(g289
g15
tp622
(lp623
g10
as(VTrack/TrackVertexMonitor/PV x position
p624
g51
tp625
(lp626
g10
as(g84
g15
tp627
(lp628
g37
as(g97
g120
tp629
(lp630
g10
as(g24
g51
tp631
(lp632
g10
as(g559
g41
tp633
(lp634
g37
as(VTrack/TrackMonitor/Long/ghostProb
p635
((S'func'
p636
S'skew'
p637
tp638
(S'distance'
p639
S'variational_distance'
p640
tp641
tp642
tp643
(lp644
g232
as(g387
g15
tp645
(lp646
g10
as(g129
g21
tp647
(lp648
g10
as(VTrack/TrackMonitor/Long/numiter
p649
((S'func'
p650
S'var'
p651
tp652
(S'distance'
p653
S'kolmogorov_smirnov_statistic'
p654
tp655
tp656
tp657
(lp658
g232
as(g569
g51
tp659
(lp660
g37
as(VTrack/TrackVertexMonitor/twoprong doca pull
p661
g55
tp662
(lp663
g10
as(g153
g81
tp664
(lp665
g37
as(VTrack/TrackVertexMonitor/PV y position
p666
g81
tp667
(lp668
g167
as(g233
g124
tp669
(lp670
g10
as(g103
g7
tp671
(lp672
g10
as(g18
g65
tp673
(lp674
g10
as(g624
g21
tp675
(lp676
g10
as(g103
g21
tp677
(lp678
g10
as(VPROTO/ChargedProtoANNPIDMoni/Upstream/MuonANN
p679
g85
tp680
(lp681
g10
as(VMuIDJpsiPlot/IM
p682
g124
tp683
(lp684
g10
as(g572
g81
tp685
(lp686
g37
as(g284
g124
tp687
(lp688
g10
as(g88
g45
tp689
(lp690
g48
ag49
as(g260
g41
tp691
(lp692
g37
as(VTrack/TrackVertexMonitor/twoprong mass (GeV)
p693
((S'func'
p694
S'mean'
p695
tp696
(g694
S'var'
p697
tp698
tp699
tp700
(lp701
g206
as(g682
g91
tp702
(lp703
g37
as(g464
g21
tp704
(lp705
g10
as(VTrack/TrackITOverlapMonitor/ITASideTrack/IT1BottomBox/hitres
p706
g51
tp707
(lp708
g10
as(g266
g27
tp709
(lp710
g10
as(VPROTO/ChargedProtoANNPIDMoni/Downstream/KaonANN
p711
g34
tp712
(lp713
g10
as(g583
g65
tp714
(lp715
g37
as(g30
g34
tp716
(lp717
g10
as(VIT/ITClusterMonitor/Number of clusters vs TELL1
p718
g7
tp719
(lp720
g10
as(g212
g21
tp721
(lp722
g10
as(g408
g124
tp723
(lp724
g10
as(g429
g15
tp725
(lp726
g10
as(VOT/OTTrackMonitor/station3/residualgood
p727
((S'func'
p728
S'mean'
p729
tp730
(S'distance'
p731
S'variational_distance'
p732
tp733
tp734
tp735
(lp736
g206
as(g526
g51
tp737
(lp738
g10
as(g289
g85
tp739
(lp740
g10
as(g379
g91
tp741
(lp742
g10
as(g129
g27
tp743
(lp744
g10
as(g168
g41
tp745
(lp746
g37
as(g164
g85
tp747
(lp748
g167
as(VTrack/TrackMonitor/Long/7
p749
g27
tp750
(lp751
g10
as(g257
g55
tp752
(lp753
g10
as(g284
g34
tp754
(lp755
g37
as(g61
g27
tp756
(lp757
g10
as(VTrack/TrackVeloOverlapMonitor/residualCR
p758
g91
tp759
(lp760
g37
as(VPROTO/ChargedProtoANNPIDMoni/Long/ProtonANN
p761
g45
tp762
(lp763
g48
ag49
as(g379
g85
tp764
(lp765
g10
as(g417
g85
tp766
(lp767
g37
as(g158
g7
tp768
(lp769
g10
as(g600
g85
tp770
(lp771
g10
as(VTrack/TrackMonitor/Long/111
p772
g7
tp773
(lp774
g10
as(g341
g81
tp775
(lp776
g37
as(VTrack/TrackMonitor/Long/ghostProb
p777
((S'func'
p778
S'skew'
p779
tp780
(g778
S'kurt'
p781
tp782
tp783
tp784
(lp785
g206
as(g141
g55
tp786
(lp787
g10
as(VMuon/MuonPID/MonitorLong/hNIMvsXM2
p788
g21
tp789
(lp790
g10
as(g679
g15
tp791
(lp792
g10
as(g679
g34
tp793
(lp794
g10
as(VTrack/TrackMonitor/Long/TTResidual
p795
g81
tp796
(lp797
g10
as(g241
g41
tp798
(lp799
g167
as(g11
g124
tp800
(lp801
g10
as(g153
g124
tp802
(lp803
g10
as(g58
g41
tp804
(lp805
g10
as(g71
g45
tp806
(lp807
g48
as(g494
g45
tp808
(lp809
g48
as(g103
g81
tp810
(lp811
g37
as(g350
g34
tp812
(lp813
g37
as(g80
g15
tp814
(lp815
g10
as(g164
g45
tp816
(lp817
g48
ag167
as(g117
g81
tp818
(lp819
g10
as(g788
g34
tp820
(lp821
g10
as(g248
g15
tp822
(lp823
g10
as(g289
g41
tp824
(lp825
g10
as(g472
g124
tp826
(lp827
g10
as(g420
g7
tp828
(lp829
g10
as(g520
g15
tp830
(lp831
g10
as(g61
g21
tp832
(lp833
g10
as(g54
g65
tp834
(lp835
g10
as(VPROTO/ChargedProtoANNPIDMoni/Long/ElectronANN
p836
g15
tp837
(lp838
g37
as(g274
g51
tp839
(lp840
g10
as(g132
g45
tp841
(lp842
g48
ag49
as(VTrack/TrackMonitor/Long/numiter
p843
((S'func'
p844
S'kurt'
p845
tp846
(S'distance'
p847
S'variational_distance'
p848
tp849
tp850
tp851
(lp852
g232
as(g44
g124
tp853
(lp854
g10
as(g260
g81
tp855
(lp856
g10
as(g358
g15
tp857
(lp858
g10
as(g408
g41
tp859
(lp860
g37
as(g168
g45
tp861
(lp862
g48
ag49
as(g30
g15
tp863
(lp864
g10
as(g338
g51
tp865
(lp866
g37
as(g180
g81
tp867
(lp868
g37
as(g251
g55
tp869
(lp870
g10
as(g11
g65
tp871
(lp872
g37
as(g24
g85
tp873
(lp874
g10
as(g523
g91
tp875
(lp876
g37
as(g97
g124
tp877
(lp878
g10
as(g408
g45
tp879
(lp880
g48
ag49
as(g332
g55
tp881
(lp882
g10
as(g18
g34
tp883
(lp884
g10
as(g338
g15
tp885
(lp886
g37
as(g706
g45
tp887
(lp888
g48
ag49
as(g758
g120
tp889
(lp890
g10
as(VTrack/TrackITOverlapMonitor/ITBottomTrack/IT1CSideBox/hitres
p891
g55
tp892
(lp893
g10
as(VCaloMoniDst/ElectronMon/2
p894
g27
tp895
(lp896
g10
as(g54
g81
tp897
(lp898
g10
as(g836
g65
tp899
(lp900
g37
as(g891
g51
tp901
(lp902
g10
as(g551
g7
tp903
(lp904
g10
as(g33
g7
tp905
(lp906
g10
as(g296
g124
tp907
(lp908
g244
as(g836
g91
tp909
(lp910
g37
as(g117
g15
tp911
(lp912
g10
as(VMuIDLambdaPlot/proton/Pt
p913
g91
tp914
(lp915
g37
as(g263
g51
tp916
(lp917
g10
as(g566
g7
tp918
(lp919
g10
as(g711
g51
tp920
(lp921
g10
as(g526
g120
tp922
(lp923
g10
as(g374
g65
tp924
(lp925
g37
as(g103
g65
tp926
(lp927
g10
as(g891
g15
tp928
(lp929
g10
as(g233
g51
tp930
(lp931
g10
as(g472
g34
tp932
(lp933
g10
as(g417
g120
tp934
(lp935
g10
as(g158
g55
tp936
(lp937
g10
as(g61
g65
tp938
(lp939
g10
as(g390
g45
tp940
(lp941
g167
as(g263
g15
tp942
(lp943
g10
as(g68
g91
tp944
(lp945
g37
as(g520
g120
tp946
(lp947
g10
as(g795
g27
tp948
(lp949
g10
as(g245
g81
tp950
(lp951
g10
as(g894
g85
tp952
(lp953
g10
as(g289
g81
tp954
(lp955
g10
as(g123
g85
tp956
(lp957
g37
as(g141
g120
tp958
(lp959
g10
as(g572
g120
tp960
(lp961
g10
as(g603
(g145
(g321
g184
tp962
tp963
tp964
(lp965
g10
as(g475
g45
tp966
(lp967
g49
as(g758
g55
tp968
(lp969
g10
as(g711
g41
tp970
(lp971
g10
as(g583
g41
tp972
(lp973
g37
as(g74
g34
tp974
(lp975
g37
as(g379
g15
tp976
(lp977
g10
as(g1
g51
tp978
(lp979
g37
as(g666
g15
tp980
(lp981
g10
as(g103
g124
tp982
(lp983
g10
as(g296
g34
tp984
(lp985
g167
as(g520
g21
tp986
(lp987
g10
as(g257
g27
tp988
(lp989
g10
as(g335
g45
tp990
(lp991
g167
as(g54
g27
tp992
(lp993
g10
as(VRichJPsiMuMuPlots.MassPlotTool/all/M_J_psi_1S
p994
g45
tp995
(lp996
g48
ag49
as(g795
g91
tp997
(lp998
g10
as(g554
g27
tp999
(lp1000
g10
as(VCaloMoniDst/PhotonMon/1
p1001
g124
tp1002
(lp1003
g10
as(g251
g15
tp1004
(lp1005
g37
as(g718
g124
tp1006
(lp1007
g10
as(g94
g85
tp1008
(lp1009
g37
as(g572
g27
tp1010
(lp1011
g10
as(g144
g604
tp1012
(lp1013
g10
as(g788
g7
tp1014
(lp1015
g10
as(g180
g27
tp1016
(lp1017
g10
as(g423
g41
tp1018
(lp1019
g37
as(g788
g15
tp1020
(lp1021
g10
as(g332
g45
tp1022
(lp1023
g48
ag49
as(g94
g91
tp1024
(lp1025
g37
as(VMuon/MuonPID/MonitorLong/hDist2_IM
p1026
g15
tp1027
(lp1028
g37
as(g312
g120
tp1029
(lp1030
g10
as(g836
g27
tp1031
(lp1032
g10
as(g123
g51
tp1033
(lp1034
g37
as(VTrack/TrackVertexMonitor/twoprong mass (GeV)
p1035
((S'func'
p1036
S'mean'
p1037
tp1038
(g1036
S'kurt'
p1039
tp1040
tp1041
tp1042
(lp1043
g206
as(g58
g51
tp1044
(lp1045
g37
as(g379
g81
tp1046
(lp1047
g10
as(g365
g34
tp1048
(lp1049
g167
as(g583
g21
tp1050
(lp1051
g10
as(g520
g91
tp1052
(lp1053
g10
as(VTrack/TrackVertexMonitor/twoprong mass (GeV)
p1054
((S'func'
p1055
S'skew'
p1056
tp1057
(S'distance'
p1058
S'variational_distance'
p1059
tp1060
tp1061
tp1062
(lp1063
g206
as(g150
g41
tp1064
(lp1065
g10
as(g338
g85
tp1066
(lp1067
g37
as(g144
(g280
g145
tp1068
tp1069
(lp1070
g10
as(g994
g124
tp1071
(lp1072
g10
as(g458
g41
tp1073
(lp1074
g10
as(g274
g45
tp1075
(lp1076
g48
ag49
as(g193
g65
tp1077
(lp1078
g10
as(g338
g91
tp1079
(lp1080
g37
as(g153
g120
tp1081
(lp1082
g10
as(g515
g85
tp1083
(lp1084
g10
as(g913
g21
tp1085
(lp1086
g10
as(VTrack/TrackVertexMonitor/twoprong mass (GeV)
p1087
((S'distance'
p1088
S'variational_distance'
p1089
tp1090
(g1088
S'kolmogorov_smirnov_statistic'
p1091
tp1092
tp1093
tp1094
(lp1095
g538
ag539
as(VTrack/TrackVertexMonitor/track IP Y vs eta
p1096
g188
tp1097
(lp1098
g48
ag49
as(g891
g65
tp1099
(lp1100
g10
as(g71
g41
tp1101
(lp1102
g10
as(VTrack/TrackVertexMonitor/twoprong mass (GeV)
p1103
((S'func'
p1104
S'skew'
p1105
tp1106
(g1104
S'kurt'
p1107
tp1108
tp1109
tp1110
(lp1111
g206
as(g111
g85
tp1112
(lp1113
g37
as(g332
g65
tp1114
(lp1115
g37
as(g153
g45
tp1116
(lp1117
g48
ag49
as(g458
g7
tp1118
(lp1119
g10
as(g464
g45
tp1120
(lp1121
g48
ag49
as(g836
g45
tp1122
(lp1123
g48
ag49
as(g440
g120
tp1124
(lp1125
g10
as(g489
g45
tp1126
(lp1127
g48
ag49
as(g114
g34
tp1128
(lp1129
g10
as(g207
g55
tp1130
(lp1131
g244
as(g257
g124
tp1132
(lp1133
g10
as(VTrack/TrackVertexMonitor/twoprong decaylength significance
p1134
g34
tp1135
(lp1136
g10
as(g472
g120
tp1137
(lp1138
g10
as(g341
g21
tp1139
(lp1140
g10
as(g523
g55
tp1141
(lp1142
g10
as(g554
g45
tp1143
(lp1144
g48
ag49
as(g1026
g85
tp1145
(lp1146
g37
as(g583
g27
tp1147
(lp1148
g10
as(g994
g65
tp1149
(lp1150
g10
as(g706
g55
tp1151
(lp1152
g10
as(g212
g34
tp1153
(lp1154
g10
as(g749
g34
tp1155
(lp1156
g37
as(g180
g15
tp1157
(lp1158
g10
as(g335
g65
tp1159
(lp1160
g37
as(VTrack/TrackMonitor/Long/numiter
p1161
((S'func'
p1162
S'mean'
p1163
tp1164
(g1162
S'var'
p1165
tp1166
tp1167
tp1168
(lp1169
g206
as(g461
g124
tp1170
(lp1171
g10
as(g132
g55
tp1172
(lp1173
g10
as(g106
g65
tp1174
(lp1175
g37
as(g554
g15
tp1176
(lp1177
g10
as(g114
g27
tp1178
(lp1179
g10
as(g515
g21
tp1180
(lp1181
g10
as(g758
g34
tp1182
(lp1183
g10
as(g38
g55
tp1184
(lp1185
g10
as(g54
g15
tp1186
(lp1187
g10
as(g344
g81
tp1188
(lp1189
g10
as(VVelo/VeloClusterMonitor/Cluster ADC value
p1190
g41
tp1191
(lp1192
g10
as(g447
g91
tp1193
(lp1194
g37
as(g761
g120
tp1195
(lp1196
g10
as(g138
g45
tp1197
(lp1198
g48
ag49
as(g296
g81
tp1199
(lp1200
g167
as(g158
g45
tp1201
(lp1202
g48
ag49
as(g891
g41
tp1203
(lp1204
g10
as(g84
g55
tp1205
(lp1206
g10
as(g141
g65
tp1207
(lp1208
g10
as(g138
g41
tp1209
(lp1210
g37
as(g50
g120
tp1211
(lp1212
g10
as(g772
g27
tp1213
(lp1214
g10
as(g117
g34
tp1215
(lp1216
g10
as(g586
g91
tp1217
(lp1218
g37
as(g619
g41
tp1219
(lp1220
g10
as(g440
g85
tp1221
(lp1222
g10
as(g423
g91
tp1223
(lp1224
g37
as(g494
g81
tp1225
(lp1226
g37
as(g1
g45
tp1227
(lp1228
g48
ag49
as(g461
g65
tp1229
(lp1230
g10
as(g374
g41
tp1231
(lp1232
g10
as(g469
g120
tp1233
(lp1234
g10
as(VTrack/TrackMonitor/1
p1235
g120
tp1236
(lp1237
g10
as(g254
g124
tp1238
(lp1239
g10
as(g24
g81
tp1240
(lp1241
g37
as(g682
g65
tp1242
(lp1243
g10
as(g106
g81
tp1244
(lp1245
g37
as(g251
g91
tp1246
(lp1247
g37
as(g913
g81
tp1248
(lp1249
g10
as(g347
g81
tp1250
(lp1251
g37
as(g335
g81
tp1252
(lp1253
g167
as(g141
g124
tp1254
(lp1255
g10
as(g624
g55
tp1256
(lp1257
g10
as(g153
g51
tp1258
(lp1259
g10
as(g475
g120
tp1260
(lp1261
g10
as(g749
g15
tp1262
(lp1263
g10
as(g171
g7
tp1264
(lp1265
g10
as(g458
g45
tp1266
(lp1267
g48
ag49
as(g551
g91
tp1268
(lp1269
g37
as(g489
g85
tp1270
(lp1271
g37
as(g461
g15
tp1272
(lp1273
g10
as(g171
g41
tp1274
(lp1275
g10
as(g284
g85
tp1276
(lp1277
g37
as(g251
g21
tp1278
(lp1279
g10
as(g161
g51
tp1280
(lp1281
g10
as(g408
g65
tp1282
(lp1283
g10
as(VPROTO/ChargedProtoANNPIDMoni/Downstream/ProtonANN
p1284
((S'func'
p1285
S'skew'
p1286
tp1287
(g1285
S'kurt'
p1288
tp1289
tp1290
tp1291
(lp1292
g206
as(g33
g85
tp1293
(lp1294
g37
as(g80
g34
tp1295
(lp1296
g10
as(g358
g55
tp1297
(lp1298
g10
as(g138
g21
tp1299
(lp1300
g10
as(g141
g15
tp1301
(lp1302
g10
as(VTrack/TrackMonitor/Long/numiter
p1303
((S'func'
p1304
S'mean'
p1305
tp1306
(g1304
S'kurt'
p1307
tp1308
tp1309
tp1310
(lp1311
g206
as(g679
g51
tp1312
(lp1313
g10
as(g489
g120
tp1314
(lp1315
g10
as(g71
g15
tp1316
(lp1317
g10
as(g138
g124
tp1318
(lp1319
g10
as(g332
g15
tp1320
(lp1321
g10
as(g1134
g15
tp1322
(lp1323
g10
as(g788
g124
tp1324
(lp1325
g10
as(VTrack/TrackMonitor/Long/ghostProb
p1326
((S'func'
p1327
S'var'
p1328
tp1329
(g1327
S'skew'
p1330
tp1331
tp1332
tp1333
(lp1334
g206
as(g80
g55
tp1335
(lp1336
g10
as(g761
g21
tp1337
(lp1338
g10
as(g429
g7
tp1339
(lp1340
g10
as(g141
g45
tp1341
(lp1342
g48
as(g74
g27
tp1343
(lp1344
g10
as(g718
g15
tp1345
(lp1346
g10
as(g526
g34
tp1347
(lp1348
g10
as(g494
g41
tp1349
(lp1350
g10
as(g164
g15
tp1351
(lp1352
g167
as(g193
g91
tp1353
(lp1354
g37
as(g106
g34
tp1355
(lp1356
g10
as(g520
g55
tp1357
(lp1358
g10
as(g480
g21
tp1359
(lp1360
g10
as(g891
g7
tp1361
(lp1362
g10
as(g88
g85
tp1363
(lp1364
g10
as(g913
g55
tp1365
(lp1366
g10
as(g390
g27
tp1367
(lp1368
g244
as(g30
g51
tp1369
(lp1370
g10
as(g603
g324
tp1371
(lp1372
g10
as(VMuIDLambdaPlot/proton/Prof_eff
p1373
((g2
g25
tp1374
(g12
g186
tp1375
tp1376
tp1377
(lp1378
g10
as(g515
g120
tp1379
(lp1380
g10
as(g566
g51
tp1381
(lp1382
g10
as(VMuIDLambdaPlot/IM
p1383
g120
tp1384
(lp1385
g10
as(g266
g41
tp1386
(lp1387
g10
as(g423
g27
tp1388
(lp1389
g10
as(g106
g51
tp1390
(lp1391
g37
as(g1001
g55
tp1392
(lp1393
g10
as(g711
g21
tp1394
(lp1395
g10
as(g464
g124
tp1396
(lp1397
g10
as(VOT/OTTrackMonitor/station3/residualgood
p1398
((S'distance'
p1399
S'variational_distance'
p1400
tp1401
(g1399
S'kolmogorov_smirnov_statistic'
p1402
tp1403
tp1404
tp1405
(lp1406
g538
ag539
as(g18
g45
tp1407
(lp1408
g167
as(g994
g120
tp1409
(lp1410
g10
as(g679
g27
tp1411
(lp1412
g10
as(g71
g21
tp1413
(lp1414
g10
as(g38
g51
tp1415
(lp1416
g37
as(g180
g55
tp1417
(lp1418
g10
as(g600
g41
tp1419
(lp1420
g10
as(g453
g124
tp1421
(lp1422
g10
as(g215
g21
tp1423
(lp1424
g10
as(g600
g7
tp1425
(lp1426
g10
as(VCaloMoniDst/ElectronMon/1
p1427
g124
tp1428
(lp1429
g10
as(g263
g34
tp1430
(lp1431
g10
as(g212
g27
tp1432
(lp1433
g10
as(g274
g81
tp1434
(lp1435
g10
as(g569
g120
tp1436
(lp1437
g10
as(g257
g7
tp1438
(lp1439
g10
as(VOT/OTTrackMonitor/station3/residualgood
p1440
((S'func'
p1441
S'kurt'
p1442
tp1443
(S'distance'
p1444
S'variational_distance'
p1445
tp1446
tp1447
tp1448
(lp1449
g232
as(g365
g27
tp1450
(lp1451
g167
as(VTrack/TrackMonitor/Long/numiter
p1452
((S'func'
p1453
S'var'
p1454
tp1455
(g1453
S'kurt'
p1456
tp1457
tp1458
tp1459
(lp1460
g206
as(g586
g15
tp1461
(lp1462
g10
as(g1190
g45
tp1463
(lp1464
g48
ag49
as(g1383
g27
tp1465
(lp1466
g10
as(g212
g41
tp1467
(lp1468
g10
as(g263
g55
tp1469
(lp1470
g10
as(g379
g65
tp1471
(lp1472
g10
as(g461
g7
tp1473
(lp1474
g10
as(VOT/OTTimeMonitor/302
p1475
g27
tp1476
(lp1477
g10
as(g61
g51
tp1478
(lp1479
g10
as(g254
g85
tp1480
(lp1481
g10
as(VMakeDstSel.DaughtersPlots/Mass(D0)
p1482
((S'func'
p1483
S'var'
p1484
tp1485
(g1483
S'kurt'
p1486
tp1487
tp1488
tp1489
(lp1490
g206
as(g994
g27
tp1491
(lp1492
g10
as(g749
g51
tp1493
(lp1494
g10
as(g682
g51
tp1495
(lp1496
g37
as(g266
g34
tp1497
(lp1498
g10
as(g77
g15
tp1499
(lp1500
g10
as(g58
g124
tp1501
(lp1502
g10
as(g679
g7
tp1503
(lp1504
g10
as(VTrack/TrackVertexMonitor/track IP Y vs phi
p1505
g188
tp1506
(lp1507
g48
ag49
as(g248
g21
tp1508
(lp1509
g10
as(g1134
g41
tp1510
(lp1511
g10
as(g38
g120
tp1512
(lp1513
g10
as(g515
g81
tp1514
(lp1515
g37
as(g1190
g120
tp1516
(lp1517
g10
as(g24
g45
tp1518
(lp1519
g48
ag49
as(g263
g85
tp1520
(lp1521
g10
as(g61
g41
tp1522
(lp1523
g37
as(g123
g41
tp1524
(lp1525
g10
as(g1373
((g12
g184
tp1526
g1375
tp1527
tp1528
(lp1529
g48
ag49
as(g365
g7
tp1530
(lp1531
g167
as(g141
g34
tp1532
(lp1533
g10
as(g207
g120
tp1534
(lp1535
g10
as(g426
g45
tp1536
(lp1537
g48
ag49
as(g68
g45
tp1538
(lp1539
g48
ag49
as(g245
g51
tp1540
(lp1541
g10
as(g254
g7
tp1542
(lp1543
g10
as(g520
g124
tp1544
(lp1545
g10
as(g661
g15
tp1546
(lp1547
g10
as(g289
g51
tp1548
(lp1549
g10
as(g494
g21
tp1550
(lp1551
g10
as(g450
g15
tp1552
(lp1553
g10
as(g212
g65
tp1554
(lp1555
g37
as(VTrack/TrackVertexMonitor/twoprong mass (GeV)
p1556
((S'func'
p1557
S'mean'
p1558
tp1559
(g1557
S'skew'
p1560
tp1561
tp1562
tp1563
(lp1564
g206
as(g426
g81
tp1565
(lp1566
g37
as(g480
g65
tp1567
(lp1568
g37
as(VMuIDJpsiPlot/probe/Prof_eff
p1569
((S'distance'
p1570
S'variational'
p1571
tp1572
(g1570
S'kolmogorov'
p1573
tp1574
tp1575
tp1576
(lp1577
g538
ag539
as(g332
g91
tp1578
(lp1579
g37
as(g1001
g15
tp1580
(lp1581
g10
as(g207
g51
tp1582
(lp1583
g37
as(g212
g91
tp1584
(lp1585
g37
as(g117
g21
tp1586
(lp1587
g10
as(g233
g15
tp1588
(lp1589
g37
as(g332
g85
tp1590
(lp1591
g10
as(g212
g81
tp1592
(lp1593
g37
as(VPROTO/ChargedProtoANNPIDMoni/Downstream/ProtonANN
p1594
((S'func'
p1595
S'kurt'
p1596
tp1597
(S'distance'
p1598
S'variational_distance'
p1599
tp1600
tp1601
tp1602
(lp1603
g206
as(g30
g65
tp1604
(lp1605
g10
as(g114
g21
tp1606
(lp1607
g10
as(g619
g7
tp1608
(lp1609
g10
as(g103
g15
tp1610
(lp1611
g10
as(g312
g45
tp1612
(lp1613
g48
ag49
as(g520
g65
tp1614
(lp1615
g10
as(g1
g55
tp1616
(lp1617
g10
as(VTrack/TrackITOverlapMonitor/ITCSideTrack/IT1TopBox/hitres
p1618
g81
tp1619
(lp1620
g10
as(g382
g7
tp1621
(lp1622
g10
as(g387
g41
tp1623
(lp1624
g10
as(g586
g55
tp1625
(lp1626
g10
as(g429
g55
tp1627
(lp1628
g10
as(g138
g7
tp1629
(lp1630
g10
as(g61
g45
tp1631
(lp1632
g48
ag49
as(g559
g27
tp1633
(lp1634
g10
as(g515
g15
tp1635
(lp1636
g10
as(g624
g15
tp1637
(lp1638
g10
as(g193
g34
tp1639
(lp1640
g10
as(g11
g51
tp1641
(lp1642
g37
as(VCaloMoniDst/PhotonMon/2
p1643
g15
tp1644
(lp1645
g10
as(g248
g85
tp1646
(lp1647
g10
as(g80
g65
tp1648
(lp1649
g10
as(g312
g55
tp1650
(lp1651
g10
as(g1643
g7
tp1652
(lp1653
g10
as(g429
g124
tp1654
(lp1655
g10
as(g408
g15
tp1656
(lp1657
g10
as(g215
g91
tp1658
(lp1659
g37
as(g80
g85
tp1660
(lp1661
g10
as(g661
g65
tp1662
(lp1663
g10
as(VTrack/TrackMonitor/Long/numiter
p1664
((S'func'
p1665
S'var'
p1666
tp1667
(S'distance'
p1668
S'variational_distance'
p1669
tp1670
tp1671
tp1672
(lp1673
g232
as(VOT/OTTrackMonitor/station3/residualgood
p1674
((S'func'
p1675
S'var'
p1676
tp1677
(S'distance'
p1678
S'kolmogorov_smirnov_statistic'
p1679
tp1680
tp1681
tp1682
(lp1683
g232
as(g1
g34
tp1684
(lp1685
g10
as(g296
g55
tp1686
(lp1687
g244
as(g1235
g81
tp1688
(lp1689
g37
as(g123
g81
tp1690
(lp1691
g37
as(g469
g27
tp1692
(lp1693
g10
as(g382
g34
tp1694
(lp1695
g10
as(g58
g81
tp1696
(lp1697
g10
as(g566
g65
tp1698
(lp1699
g10
as(g891
g124
tp1700
(lp1701
g10
as(g472
g85
tp1702
(lp1703
g10
as(g572
g124
tp1704
(lp1705
g10
as(g132
g91
tp1706
(lp1707
g37
as(g551
g41
tp1708
(lp1709
g10
as(g358
g65
tp1710
(lp1711
g10
as(g274
g21
tp1712
(lp1713
g10
as(g1427
g34
tp1714
(lp1715
g37
as(VOT/OTTrackMonitor/station3/residualgood
p1716
((S'func'
p1717
S'mean'
p1718
tp1719
(S'distance'
p1720
S'kolmogorov_smirnov_statistic'
p1721
tp1722
tp1723
tp1724
(lp1725
g206
as(g408
g55
tp1726
(lp1727
g10
as(g123
g65
tp1728
(lp1729
g37
as(VPROTO/ChargedProtoANNPIDMoni/Downstream/ProtonANN
p1730
((S'func'
p1731
S'var'
p1732
tp1733
(g1731
S'kurt'
p1734
tp1735
tp1736
tp1737
(lp1738
s(g129
g55
tp1739
(lp1740
g10
as(g447
g45
tp1741
(lp1742
g48
ag49
as(g88
g124
tp1743
(lp1744
g10
as(g1001
g85
tp1745
(lp1746
g10
as(g1618
g55
tp1747
(lp1748
g10
as(g382
g27
tp1749
(lp1750
g10
as(g233
g120
tp1751
(lp1752
g10
as(g80
g27
tp1753
(lp1754
g10
as(g472
g41
tp1755
(lp1756
g37
as(g453
g7
tp1757
(lp1758
g10
as(g682
g55
tp1759
(lp1760
g10
as(g158
g65
tp1761
(lp1762
g10
as(g77
g91
tp1763
(lp1764
g10
as(g207
g45
tp1765
(lp1766
g48
ag49
as(g215
g7
tp1767
(lp1768
g10
as(g245
g7
tp1769
(lp1770
g10
as(g520
g81
tp1771
(lp1772
g10
as(g551
g51
tp1773
(lp1774
g37
as(g619
g15
tp1775
(lp1776
g10
as(g450
g120
tp1777
(lp1778
g10
as(g489
g27
tp1779
(lp1780
g10
as(g891
g27
tp1781
(lp1782
g10
as(g296
g21
tp1783
(lp1784
g10
as(g77
g27
tp1785
(lp1786
g10
as(VTrack/TrackMonitor/Long/numiter
p1787
((S'func'
p1788
S'var'
p1789
tp1790
(g1788
S'skew'
p1791
tp1792
tp1793
tp1794
(lp1795
g206
as(g420
g15
tp1796
(lp1797
g10
as(g624
g34
tp1798
(lp1799
g10
as(g429
g41
tp1800
(lp1801
g10
as(g603
(g279
g962
tp1802
tp1803
(lp1804
g37
as(VTrack/TrackMonitor/Long/ghostProb
p1805
((S'func'
p1806
S'mean'
p1807
tp1808
(S'distance'
p1809
S'variational_distance'
p1810
tp1811
tp1812
tp1813
(lp1814
g232
as(g423
g34
tp1815
(lp1816
g37
as(g150
g21
tp1817
(lp1818
g10
as(g350
g65
tp1819
(lp1820
g37
as(g150
g120
tp1821
(lp1822
g10
as(g1373
(g1374
g1526
tp1823
tp1824
(lp1825
g10
as(g489
g34
tp1826
(lp1827
g37
as(g44
g120
tp1828
(lp1829
g10
as(g1134
g45
tp1830
(lp1831
g48
ag49
as(g679
g124
tp1832
(lp1833
g10
as(g269
g51
tp1834
(lp1835
g37
as(g453
g85
tp1836
(lp1837
g10
as(g150
g34
tp1838
(lp1839
g10
as(g106
g55
tp1840
(lp1841
g10
as(g254
g65
tp1842
(lp1843
g10
as(g100
g15
tp1844
(lp1845
g10
as(g711
g27
tp1846
(lp1847
g10
as(g387
g27
tp1848
(lp1849
g10
as(g141
g41
tp1850
(lp1851
g10
as(g77
g120
tp1852
(lp1853
g10
as(g390
g7
tp1854
(lp1855
g244
as(g335
g55
tp1856
(lp1857
g244
as(g1643
g51
tp1858
(lp1859
g10
as(g254
g55
tp1860
(lp1861
g10
as(g475
g51
tp1862
(lp1863
g10
as(g382
g15
tp1864
(lp1865
g10
as(g408
g34
tp1866
(lp1867
g37
as(g894
g51
tp1868
(lp1869
g10
as(g417
g41
tp1870
(lp1871
g37
as(g682
g21
tp1872
(lp1873
g10
as(g254
g81
tp1874
(lp1875
g37
as(g526
g45
tp1876
(lp1877
g48
ag49
as(g150
g27
tp1878
(lp1879
g10
as(g520
g41
tp1880
(lp1881
g10
as(g64
g15
tp1882
(lp1883
g10
as(g266
g124
tp1884
(lp1885
g10
as(g387
g65
tp1886
(lp1887
g10
as(g1618
g27
tp1888
(lp1889
g10
as(g661
g21
tp1890
(lp1891
g10
as(g913
g51
tp1892
(lp1893
g10
as(g245
g34
tp1894
(lp1895
g10
as(g624
g91
tp1896
(lp1897
g167
as(g469
g51
tp1898
(lp1899
g37
as(g335
g51
tp1900
(lp1901
g37
as(g679
g91
tp1902
(lp1903
g37
as(g129
g124
tp1904
(lp1905
g10
as(g284
g15
tp1906
(lp1907
g37
as(g168
g91
tp1908
(lp1909
g10
as(g711
g124
tp1910
(lp1911
g10
as(g38
g124
tp1912
(lp1913
g10
as(g1643
g81
tp1914
(lp1915
g10
as(g132
g21
tp1916
(lp1917
g10
as(g161
g81
tp1918
(lp1919
g37
as(g453
g51
tp1920
(lp1921
g10
as(g344
g27
tp1922
(lp1923
g10
as(g891
g85
tp1924
(lp1925
g10
as(g284
g51
tp1926
(lp1927
g37
as(VCaloMoniDst/PhotonMatchMon/5
p1928
g21
tp1929
(lp1930
g10
as(g450
g65
tp1931
(lp1932
g10
as(g1475
g7
tp1933
(lp1934
g10
as(g679
g81
tp1935
(lp1936
g37
as(g706
g124
tp1937
(lp1938
g10
as(g97
g65
tp1939
(lp1940
g10
as(g387
g124
tp1941
(lp1942
g10
as(g106
g7
tp1943
(lp1944
g10
as(VTrack/TrackPV2HalfAlignMonitor/Left-Right PV delta y
p1945
g124
tp1946
(lp1947
g10
as(g453
g21
tp1948
(lp1949
g10
as(g1618
g65
tp1950
(lp1951
g10
as(g666
g55
tp1952
(lp1953
g10
as(g515
g45
tp1954
(lp1955
g48
ag49
as(g788
g81
tp1956
(lp1957
g10
as(g141
g81
tp1958
(lp1959
g37
as(g44
g21
tp1960
(lp1961
g10
as(g129
g65
tp1962
(lp1963
g10
as(g405
g41
tp1964
(lp1965
g37
as(g624
g124
tp1966
(lp1967
g10
as(g1427
g91
tp1968
(lp1969
g37
as(g11
g41
tp1970
(lp1971
g10
as(g749
g41
tp1972
(lp1973
g37
as(g327
g124
tp1974
(lp1975
g10
as(g158
g41
tp1976
(lp1977
g10
as(VTrack/TrackVertexMonitor/fast track IP X vs phi
p1978
g188
tp1979
(lp1980
g48
ag49
as(g1134
g120
tp1981
(lp1982
g10
as(g1928
g120
tp1983
(lp1984
g10
as(g913
g124
tp1985
(lp1986
g10
as(g171
g91
tp1987
(lp1988
g10
as(g150
g55
tp1989
(lp1990
g10
as(VOT/OTTrackMonitor/station3/residualgood
p1991
((S'func'
p1992
S'mean'
p1993
tp1994
(g1992
S'var'
p1995
tp1996
tp1997
tp1998
(lp1999
g206
as(g296
g41
tp2000
(lp2001
g167
as(g274
g7
tp2002
(lp2003
g10
as(g1945
g55
tp2004
(lp2005
g10
as(g772
g41
tp2006
(lp2007
g37
as(g489
g15
tp2008
(lp2009
g37
as(g269
g7
tp2010
(lp2011
g10
as(g260
g27
tp2012
(lp2013
g10
as(g117
g91
tp2014
(lp2015
g37
as(g566
g81
tp2016
(lp2017
g10
as(g77
g65
tp2018
(lp2019
g37
as(VPROTO/ChargedProtoANNPIDMoni/Downstream/ProtonANN
p2020
((S'func'
p2021
S'var'
p2022
tp2023
(g2021
S'skew'
p2024
tp2025
tp2026
tp2027
(lp2028
g206
as(g572
g21
tp2029
(lp2030
g10
as(g233
g81
tp2031
(lp2032
g10
as(g347
g124
tp2033
(lp2034
g10
as(g542
g81
tp2035
(lp2036
g10
as(g1643
g21
tp2037
(lp2038
g10
as(g38
g81
tp2039
(lp2040
g10
as(g600
g65
tp2041
(lp2042
g10
as(g586
g65
tp2043
(lp2044
g37
as(g475
g15
tp2045
(lp2046
g10
as(g405
g120
tp2047
(lp2048
g10
as(g447
g124
tp2049
(lp2050
g10
as(g44
g15
tp2051
(lp2052
g10
as(g97
g7
tp2053
(lp2054
g10
as(g215
g124
tp2055
(lp2056
g10
as(VMakeDstSel.DaughtersPlots/Mass(D0)
p2057
((S'func'
p2058
S'var'
p2059
tp2060
(S'distance'
p2061
S'kolmogorov_smirnov_statistic'
p2062
tp2063
tp2064
tp2065
(lp2066
g206
as(g296
g27
tp2067
(lp2068
g244
as(g1618
g15
tp2069
(lp2070
g10
as(g180
g34
tp2071
(lp2072
g37
as(g1
g91
tp2073
(lp2074
g37
as(g150
g15
tp2075
(lp2076
g10
as(g718
g34
tp2077
(lp2078
g37
as(g569
g45
tp2079
(lp2080
g48
ag49
as(g1026
g41
tp2081
(lp2082
g37
as(g164
g51
tp2083
(lp2084
g167
as(g241
g85
tp2085
(lp2086
g10
as(g24
g15
tp2087
(lp2088
g10
as(g795
g21
tp2089
(lp2090
g10
as(g1190
g27
tp2091
(lp2092
g10
as(g1945
g81
tp2093
(lp2094
g37
as(g788
g41
tp2095
(lp2096
g37
as(g347
g65
tp2097
(lp2098
g37
as(g469
g34
tp2099
(lp2100
g10
as(g426
g27
tp2101
(lp2102
g10
as(g289
g34
tp2103
(lp2104
g10
as(g464
g34
tp2105
(lp2106
g37
as(g141
g21
tp2107
(lp2108
g10
as(g749
g81
tp2109
(lp2110
g37
as(g682
g81
tp2111
(lp2112
g10
as(g480
g15
tp2113
(lp2114
g37
as(VMakeDstSel.DaughtersPlots/Mass(D0)
p2115
((S'func'
p2116
S'skew'
p2117
tp2118
(S'distance'
p2119
S'kolmogorov_smirnov_statistic'
p2120
tp2121
tp2122
tp2123
(lp2124
g206
as(g251
g45
tp2125
(lp2126
g48
ag49
as(g54
g7
tp2127
(lp2128
g10
as(g88
g27
tp2129
(lp2130
g10
as(g100
g45
tp2131
(lp2132
g48
ag49
as(g341
g124
tp2133
(lp2134
g10
as(g1643
g55
tp2135
(lp2136
g10
as(g661
g34
tp2137
(lp2138
g10
as(g260
g55
tp2139
(lp2140
g10
as(g350
g124
tp2141
(lp2142
g10
as(g426
g55
tp2143
(lp2144
g10
as(g106
g124
tp2145
(lp2146
g10
as(g387
g55
tp2147
(lp2148
g10
as(g566
g41
tp2149
(lp2150
g10
as(VPROTO/ChargedProtoANNPIDMoni/Downstream/ProtonANN
p2151
((S'distance'
p2152
S'variational_distance'
p2153
tp2154
(g2152
S'kolmogorov_smirnov_statistic'
p2155
tp2156
tp2157
tp2158
(lp2159
S'line_gauss'
p2160
aS'line'
p2161
as(g469
g45
tp2162
(lp2163
g48
ag49
as(g168
g51
tp2164
(lp2165
g10
as(g18
g41
tp2166
(lp2167
g10
as(g994
g91
tp2168
(lp2169
g37
as(g836
g41
tp2170
(lp2171
g37
as(g94
g15
tp2172
(lp2173
g37
as(g245
g41
tp2174
(lp2175
g10
as(g586
g34
tp2176
(lp2177
g37
as(g836
g7
tp2178
(lp2179
g10
as(g374
g85
tp2180
(lp2181
g10
as(g1383
g91
tp2182
(lp2183
g10
as(g1945
g15
tp2184
(lp2185
g10
as(g132
g81
tp2186
(lp2187
g10
as(VPROTO/ChargedProtoANNPIDMoni/Upstream/KaonANN
p2188
g120
tp2189
(lp2190
g10
as(g1001
g27
tp2191
(lp2192
g10
as(g894
g91
tp2193
(lp2194
g37
as(g1383
g65
tp2195
(lp2196
g10
as(g624
g120
tp2197
(lp2198
g10
as(g168
g21
tp2199
(lp2200
g10
as(g666
g21
tp2201
(lp2202
g10
as(g1026
g81
tp2203
(lp2204
g37
as(g1383
g85
tp2205
(lp2206
g10
as(g171
g45
tp2207
(lp2208
g48
ag49
as(g24
g34
tp2209
(lp2210
g10
as(g129
g7
tp2211
(lp2212
g10
as(g1475
g85
tp2213
(lp2214
g10
as(g338
g27
tp2215
(lp2216
g10
as(g129
g41
tp2217
(lp2218
g10
as(g749
g65
tp2219
(lp2220
g10
as(g365
g81
tp2221
(lp2222
g167
as(g619
g55
tp2223
(lp2224
g10
as(g18
g124
tp2225
(lp2226
g244
ag10
as(g347
g34
tp2227
(lp2228
g37
as(g365
g55
tp2229
(lp2230
g167
as(g103
g91
tp2231
(lp2232
g37
as(g682
g41
tp2233
(lp2234
g10
as(g569
g65
tp2235
(lp2236
g10
as(g624
g7
tp2237
(lp2238
g244
as(g263
g21
tp2239
(lp2240
g10
as(g1618
g51
tp2241
(lp2242
g10
as(VRICH/RiLongTrkEff/All/effVGhostProb
p2243
g188
tp2244
(lp2245
g48
ag49
as(g332
g81
tp2246
(lp2247
g10
as(g706
g7
tp2248
(lp2249
g10
as(g1001
g120
tp2250
(lp2251
g10
as(VPROTO/ChargedProtoANNPIDMoni/Downstream/ProtonANN
p2252
((S'func'
p2253
S'mean'
p2254
tp2255
(g2253
S'kurt'
p2256
tp2257
tp2258
tp2259
(lp2260
S'gauss'
p2261
as(g245
g55
tp2262
(lp2263
g10
as(VTrack/TrackMonitor/Long/ghostProb
p2264
((S'func'
p2265
S'var'
p2266
tp2267
(S'distance'
p2268
S'kolmogorov_smirnov_statistic'
p2269
tp2270
tp2271
tp2272
(lp2273
g232
as(g758
g51
tp2274
(lp2275
g10
as(g84
g27
tp2276
(lp2277
g10
as(g390
g41
tp2278
(lp2279
g167
as(g338
g41
tp2280
(lp2281
g10
as(g251
g85
tp2282
(lp2283
g37
as(g158
g85
tp2284
(lp2285
g10
as(g489
g21
tp2286
(lp2287
g10
as(g1134
g124
tp2288
(lp2289
g10
as(g408
g27
tp2290
(lp2291
g10
as(g266
g45
tp2292
(lp2293
g48
ag49
as(g64
g91
tp2294
(lp2295
g10
as(g207
g15
tp2296
(lp2297
g37
as(g274
g55
tp2298
(lp2299
g10
as(g426
g91
tp2300
(lp2301
g37
as(g749
g124
tp2302
(lp2303
g10
as(g891
g45
tp2304
(lp2305
g48
ag49
as(g836
g81
tp2306
(lp2307
g37
as(VTrack/TrackVertexMonitor/twoprong mass (GeV)
p2308
((S'func'
p2309
S'kurt'
p2310
tp2311
(S'distance'
p2312
S'kolmogorov_smirnov_statistic'
p2313
tp2314
tp2315
tp2316
(lp2317
g206
as(g603
(g323
g962
tp2318
tp2319
(lp2320
g37
as(g772
g91
tp2321
(lp2322
g37
as(g450
g85
tp2323
(lp2324
g10
as(g100
g55
tp2325
(lp2326
g10
as(g54
g91
tp2327
(lp2328
g37
as(g420
g51
tp2329
(lp2330
g10
as(g390
g85
tp2331
(lp2332
g37
as(g458
g81
tp2333
(lp2334
g37
as(g583
g124
tp2335
(lp2336
g10
as(g1618
g120
tp2337
(lp2338
g10
as(g350
g81
tp2339
(lp2340
g37
as(g18
g85
tp2341
(lp2342
g10
as(g666
g7
tp2343
(lp2344
g244
as(VTrack/TrackMonitor/Long/numiter
p2345
((S'func'
p2346
S'skew'
p2347
tp2348
(S'distance'
p2349
S'variational_distance'
p2350
tp2351
tp2352
tp2353
(lp2354
g232
as(g233
g85
tp2355
(lp2356
g10
as(g569
g21
tp2357
(lp2358
g10
as(g1190
g15
tp2359
(lp2360
g37
as(g296
g91
tp2361
(lp2362
g167
as(g489
g55
tp2363
(lp2364
g10
as(g161
g85
tp2365
(lp2366
g10
as(g475
g7
tp2367
(lp2368
g10
as(g706
g27
tp2369
(lp2370
g10
as(g894
g7
tp2371
(lp2372
g10
as(g97
g45
tp2373
(lp2374
g48
ag49
as(g296
g85
tp2375
(lp2376
g37
as(g374
g21
tp2377
(lp2378
g10
as(g520
g51
tp2379
(lp2380
g10
as(g836
g34
tp2381
(lp2382
g37
as(g458
g15
tp2383
(lp2384
g10
as(g417
g55
tp2385
(lp2386
g10
as(g1026
g21
tp2387
(lp2388
g10
as(g408
g85
tp2389
(lp2390
g10
as(g489
g51
tp2391
(lp2392
g37
as(g58
g91
tp2393
(lp2394
g37
as(g542
g45
tp2395
(lp2396
g48
ag49
as(g447
g120
tp2397
(lp2398
g10
as(g469
g91
tp2399
(lp2400
g37
as(g469
g41
tp2401
(lp2402
g10
as(g1928
g124
tp2403
(lp2404
g10
as(g164
g41
tp2405
(lp2406
g167
as(g450
g81
tp2407
(lp2408
g10
as(g215
g45
tp2409
(lp2410
g48
ag49
as(g263
g120
tp2411
(lp2412
g10
as(g586
g120
tp2413
(lp2414
g10
as(g94
g34
tp2415
(lp2416
g37
as(g245
g85
tp2417
(lp2418
g10
as(g38
g21
tp2419
(lp2420
g10
as(g106
g27
tp2421
(lp2422
g10
as(VTrack/TrackMonitor/Long/numiter
p2423
((S'func'
p2424
S'skew'
p2425
tp2426
(g2424
S'kurt'
p2427
tp2428
tp2429
tp2430
(lp2431
g206
as(g559
g91
tp2432
(lp2433
g37
as(g58
g21
tp2434
(lp2435
g10
as(g135
g15
tp2436
(lp2437
g37
as(g117
g7
tp2438
(lp2439
g10
as(VMakeDstSel.DaughtersPlots/Mass(D0)
p2440
((S'func'
p2441
S'mean'
p2442
tp2443
(g2441
S'var'
p2444
tp2445
tp2446
tp2447
(lp2448
g206
as(g1235
g55
tp2449
(lp2450
g10
as(g788
g45
tp2451
(lp2452
g48
ag49
as(g1190
g81
tp2453
(lp2454
g37
as(g54
g124
tp2455
(lp2456
g10
as(g341
g7
tp2457
(lp2458
g10
as(g33
g51
tp2459
(lp2460
g37
as(g71
g27
tp2461
(lp2462
g10
as(g274
g91
tp2463
(lp2464
g10
as(g600
g45
tp2465
(lp2466
g48
ag49
as(g461
g55
tp2467
(lp2468
g10
as(g350
g7
tp2469
(lp2470
g10
as(g382
g65
tp2471
(lp2472
g10
as(g38
g34
tp2473
(lp2474
g37
as(g758
g7
tp2475
(lp2476
g10
as(g447
g27
tp2477
(lp2478
g10
as(g269
g124
tp2479
(lp2480
g10
as(g350
g41
tp2481
(lp2482
g37
as(g374
g45
tp2483
(lp2484
g48
ag49
as(g1475
g15
tp2485
(lp2486
g10
as(g1383
g7
tp2487
(lp2488
g10
as(g661
g51
tp2489
(lp2490
g37
as(g68
g41
tp2491
(lp2492
g10
as(g523
g124
tp2493
(lp2494
g10
as(g284
g120
tp2495
(lp2496
g10
as(g58
g45
tp2497
(lp2498
g48
ag49
as(g1427
g21
tp2499
(lp2500
g10
as(g254
g45
tp2501
(lp2502
g48
ag49
as(g749
g55
tp2503
(lp2504
g10
as(g836
g124
tp2505
(lp2506
g10
as(g168
g27
tp2507
(lp2508
g10
as(VOT/OTTrackMonitor/station3/residualgood
p2509
((S'func'
p2510
S'mean'
p2511
tp2512
(g2510
S'skew'
p2513
tp2514
tp2515
tp2516
(lp2517
g206
as(g38
g65
tp2518
(lp2519
g10
as(g248
g7
tp2520
(lp2521
g10
as(g472
g7
tp2522
(lp2523
g10
as(g566
g91
tp2524
(lp2525
g10
as(g569
g81
tp2526
(lp2527
g10
as(g71
g120
tp2528
(lp2529
g10
as(g138
g51
tp2530
(lp2531
g37
as(g338
g120
tp2532
(lp2533
g10
as(g469
g81
tp2534
(lp2535
g37
as(g569
g7
tp2536
(lp2537
g10
as(g260
g85
tp2538
(lp2539
g10
as(g123
g27
tp2540
(lp2541
g10
as(g420
g34
tp2542
(lp2543
g10
as(g624
g45
tp2544
(lp2545
g167
as(g666
g51
tp2546
(lp2547
g167
as(g332
g21
tp2548
(lp2549
g10
as(g80
g120
tp2550
(lp2551
g10
as(g706
g65
tp2552
(lp2553
g10
as(g374
g34
tp2554
(lp2555
g10
as(g523
g65
tp2556
(lp2557
g10
as(g350
g27
tp2558
(lp2559
g10
as(g84
g21
tp2560
(lp2561
g10
as(g453
g41
tp2562
(lp2563
g10
as(g161
g124
tp2564
(lp2565
g10
as(g379
g55
tp2566
(lp2567
g10
as(g212
g120
tp2568
(lp2569
g10
as(g772
g15
tp2570
(lp2571
g37
as(g284
g81
tp2572
(lp2573
g37
as(g88
g120
tp2574
(lp2575
g10
as(g390
g15
tp2576
(lp2577
g10
as(g554
g51
tp2578
(lp2579
g10
as(g542
g55
tp2580
(lp2581
g10
as(g619
g120
tp2582
(lp2583
g10
as(g64
g34
tp2584
(lp2585
g10
as(g74
g55
tp2586
(lp2587
g10
as(g761
g85
tp2588
(lp2589
g37
as(g718
g85
tp2590
(lp2591
g37
as(g347
g85
tp2592
(lp2593
g37
as(g788
g51
tp2594
(lp2595
g10
as(g193
g85
tp2596
(lp2597
g10
as(g347
g21
tp2598
(lp2599
g10
as(g233
g55
tp2600
(lp2601
g10
as(VPROTO/ChargedProtoANNPIDMoni/Downstream/ProtonANN
p2602
((S'func'
p2603
S'mean'
p2604
tp2605
(g2603
S'var'
p2606
tp2607
tp2608
tp2609
(lp2610
s(g77
g124
tp2611
(lp2612
g10
as(g44
g51
tp2613
(lp2614
g10
as(g1235
g15
tp2615
(lp2616
g37
as(g266
g91
tp2617
(lp2618
g37
as(g153
g21
tp2619
(lp2620
g10
as(g572
g41
tp2621
(lp2622
g10
as(g332
g27
tp2623
(lp2624
g10
as(g123
g7
tp2625
(lp2626
g10
as(g114
g124
tp2627
(lp2628
g10
as(g161
g65
tp2629
(lp2630
g10
as(g132
g7
tp2631
(lp2632
g10
as(g341
g51
tp2633
(lp2634
g10
as(g1001
g65
tp2635
(lp2636
g10
as(g440
g81
tp2637
(lp2638
g10
as(g1928
g15
tp2639
(lp2640
g37
as(g583
g7
tp2641
(lp2642
g10
as(g344
g15
tp2643
(lp2644
g37
as(g761
g55
tp2645
(lp2646
g10
as(g795
g51
tp2647
(lp2648
g10
as(g679
g45
tp2649
(lp2650
g48
ag49
as(g94
g55
tp2651
(lp2652
g10
as(g260
g7
tp2653
(lp2654
g10
as(VTrack/TrackMonitor/Long/ghostProb
p2655
((S'func'
p2656
S'mean'
p2657
tp2658
(g2656
S'skew'
p2659
tp2660
tp2661
tp2662
(lp2663
g206
as(g2188
g41
tp2664
(lp2665
g10
as(g526
g41
tp2666
(lp2667
g10
as(g480
g51
tp2668
(lp2669
g37
as(g269
g85
tp2670
(lp2671
g37
as(g135
g91
tp2672
(lp2673
g37
as(g144
(g280
g323
tp2674
tp2675
(lp2676
g10
as(g358
g41
tp2677
(lp2678
g10
as(g80
g91
tp2679
(lp2680
g10
as(g74
g120
tp2681
(lp2682
g10
as(g111
g21
tp2683
(lp2684
g10
as(g603
(g279
g146
tp2685
tp2686
(lp2687
g10
as(g761
g15
tp2688
(lp2689
g10
as(g761
g34
tp2690
(lp2691
g10
as(g54
g120
tp2692
(lp2693
g10
as(g341
g41
tp2694
(lp2695
g10
as(g913
g120
tp2696
(lp2697
g10
as(g526
g21
tp2698
(lp2699
g10
as(g77
g55
tp2700
(lp2701
g10
as(g795
g41
tp2702
(lp2703
g37
as(g520
g34
tp2704
(lp2705
g10
as(g30
g45
tp2706
(lp2707
g48
ag49
as(g358
g91
tp2708
(lp2709
g37
as(g1475
g91
tp2710
(lp2711
g37
as(VMuIDLambdaPlot/pion/Prof_eff
p2712
g1376
tp2713
(lp2714
g10
as(g440
g15
tp2715
(lp2716
g10
as(g526
g91
tp2717
(lp2718
g37
as(g600
g34
tp2719
(lp2720
g10
as(g408
g120
tp2721
(lp2722
g10
as(g494
g120
tp2723
(lp2724
g10
as(g1235
g124
tp2725
(lp2726
g10
as(g453
g27
tp2727
(lp2728
g10
as(g117
g124
tp2729
(lp2730
g10
as(g11
g34
tp2731
(lp2732
g10
as(g836
g120
tp2733
(lp2734
g10
as(g111
g55
tp2735
(lp2736
g10
as(g711
g45
tp2737
(lp2738
g48
ag49
as(g426
g34
tp2739
(lp2740
g37
as(g212
g45
tp2741
(lp2742
g48
ag49
as(g718
g45
tp2743
(lp2744
g48
ag49
as(g559
g81
tp2745
(lp2746
g10
as(g405
g65
tp2747
(lp2748
g37
as(g480
g85
tp2749
(lp2750
g37
as(g88
g34
tp2751
(lp2752
g10
as(g515
g41
tp2753
(lp2754
g10
as(g913
g15
tp2755
(lp2756
g10
as(g135
g27
tp2757
(lp2758
g10
as(g440
g21
tp2759
(lp2760
g10
as(g335
g124
tp2761
(lp2762
g244
as(VPROTO/ChargedProtoANNPIDMoni/Downstream/ProtonANN
p2763
((S'func'
p2764
S'mean'
p2765
tp2766
(S'distance'
p2767
S'variational_distance'
p2768
tp2769
tp2770
tp2771
(lp2772
g206
as(g123
g120
tp2773
(lp2774
g10
as(g1383
g124
tp2775
(lp2776
g10
as(g158
g27
tp2777
(lp2778
g10
as(g387
g7
tp2779
(lp2780
g10
as(g523
g7
tp2781
(lp2782
g10
as(g358
g124
tp2783
(lp2784
g10
as(g749
g91
tp2785
(lp2786
g37
as(g138
g91
tp2787
(lp2788
g37
as(g1026
g120
tp2789
(lp2790
g10
as(g289
g21
tp2791
(lp2792
g10
as(g583
g15
tp2793
(lp2794
g37
as(g103
g85
tp2795
(lp2796
g37
as(g772
g85
tp2797
(lp2798
g37
as(g429
g34
tp2799
(lp2800
g10
as(g420
g41
tp2801
(lp2802
g10
as(g132
g51
tp2803
(lp2804
g10
as(g390
g91
tp2805
(lp2806
g167
as(g624
g27
tp2807
(lp2808
g10
as(g248
g124
tp2809
(lp2810
g10
as(g551
g21
tp2811
(lp2812
g10
as(g251
g120
tp2813
(lp2814
g10
as(g417
g21
tp2815
(lp2816
g10
as(g144
g2318
tp2817
(lp2818
g10
as(g94
g81
tp2819
(lp2820
g37
as(g111
g120
tp2821
(lp2822
g10
as(g569
g124
tp2823
(lp2824
g10
as(g461
g91
tp2825
(lp2826
g37
as(g207
g124
tp2827
(lp2828
g10
as(g788
g120
tp2829
(lp2830
g10
as(g11
g85
tp2831
(lp2832
g10
as(VTrack/TrackMonitor/Long/numiter
p2833
((S'func'
p2834
S'mean'
p2835
tp2836
(S'distance'
p2837
S'variational_distance'
p2838
tp2839
tp2840
tp2841
(lp2842
g232
as(g1190
g91
tp2843
(lp2844
g37
as(g1945
g21
tp2845
(lp2846
g10
as(g1
g81
tp2847
(lp2848
g10
as(g379
g45
tp2849
(lp2850
g48
ag49
as(g44
g34
tp2851
(lp2852
g10
as(g554
g21
tp2853
(lp2854
g10
as(g257
g45
tp2855
(lp2856
g48
ag49
as(VVelo/VeloClusterMonitor/Cluster ADC value
p2857
((S'func'
p2858
S'kurt'
p2859
tp2860
(S'distance'
p2861
S'kolmogorov_smirnov_statistic'
p2862
tp2863
tp2864
tp2865
(lp2866
S'check'
p2867
as(g586
g51
tp2868
(lp2869
g37
as(g1427
g15
tp2870
(lp2871
g37
as(g1235
g91
tp2872
(lp2873
g37
as(g2188
g45
tp2874
(lp2875
g48
ag49
as(g161
g7
tp2876
(lp2877
g10
as(g296
g120
tp2878
(lp2879
g244
as(VMakeDstSel.DaughtersPlots/Mass(D0)
p2880
((S'func'
p2881
S'mean'
p2882
tp2883
(g2881
S'skew'
p2884
tp2885
tp2886
tp2887
(lp2888
g206
as(g480
g34
tp2889
(lp2890
g37
as(VTrack/TrackMonitor/Long/numiter
p2891
((S'func'
p2892
S'kurt'
p2893
tp2894
(S'distance'
p2895
S'kolmogorov_smirnov_statistic'
p2896
tp2897
tp2898
tp2899
(lp2900
g206
as(g365
g85
tp2901
(lp2902
g167
as(g84
g91
tp2903
(lp2904
g37
as(g569
g91
tp2905
(lp2906
g37
as(g749
g21
tp2907
(lp2908
g10
as(g458
g120
tp2909
(lp2910
g10
as(g1235
g21
tp2911
(lp2912
g10
as(g1475
g81
tp2913
(lp2914
g10
as(g523
g27
tp2915
(lp2916
g10
as(g84
g65
tp2917
(lp2918
g37
as(g132
g34
tp2919
(lp2920
g10
as(g117
g27
tp2921
(lp2922
g10
as(g332
g51
tp2923
(lp2924
g37
as(g341
g45
tp2925
(lp2926
g48
ag49
as(g583
g81
tp2927
(lp2928
g10
as(g603
(g146
g962
tp2929
tp2930
(lp2931
g37
as(g666
g120
tp2932
(lp2933
g10
as(g772
g120
tp2934
(lp2935
g10
as(g379
g120
tp2936
(lp2937
g10
as(g64
g85
tp2938
(lp2939
g10
as(g551
g27
tp2940
(lp2941
g10
as(g788
g27
tp2942
(lp2943
g10
as(g132
g85
tp2944
(lp2945
g10
as(g77
g7
tp2946
(lp2947
g10
as(g135
g124
tp2948
(lp2949
g10
as(g679
g65
tp2950
(lp2951
g10
as(g390
g21
tp2952
(lp2953
g244
as(g894
g120
tp2954
(lp2955
g10
as(g274
g85
tp2956
(lp2957
g10
as(g153
g15
tp2958
(lp2959
g10
as(g749
g120
tp2960
(lp2961
g10
as(g569
g34
tp2962
(lp2963
g10
as(g1928
g34
tp2964
(lp2965
g37
as(g1643
g34
tp2966
(lp2967
g10
as(g440
g7
tp2968
(lp2969
g10
as(g1001
g45
tp2970
(lp2971
g48
ag49
as(g358
g27
tp2972
(lp2973
g10
as(g420
g81
tp2974
(lp2975
g37
as(g58
g85
tp2976
(lp2977
g10
as(g193
g7
tp2978
(lp2979
g10
as(g682
g15
tp2980
(lp2981
g10
as(g50
g34
tp2982
(lp2983
g37
as(g193
g41
tp2984
(lp2985
g10
as(g350
g51
tp2986
(lp2987
g37
as(g114
g85
tp2988
(lp2989
g10
as(g586
g85
tp2990
(lp2991
g37
as(g423
g81
tp2992
(lp2993
g37
as(g1190
g21
tp2994
(lp2995
g10
as(g440
g91
tp2996
(lp2997
g37
as(g1
g85
tp2998
(lp2999
g10
as(g526
g15
tp3000
(lp3001
g10
as(g661
g7
tp3002
(lp3003
g10
as(g583
g55
tp3004
(lp3005
g10
as(g758
g15
tp3006
(lp3007
g10
as(g103
g41
tp3008
(lp3009
g10
as(g423
g45
tp3010
(lp3011
g48
ag49
as(g350
g15
tp3012
(lp3013
g37
as(g1026
g45
tp3014
(lp3015
g48
ag49
as(g365
g21
tp3016
(lp3017
g167
as(g150
g81
tp3018
(lp3019
g37
as(g341
g120
tp3020
(lp3021
g10
as(g447
g34
tp3022
(lp3023
g10
as(g123
g15
tp3024
(lp3025
g37
as(g600
g91
tp3026
(lp3027
g10
as(g327
g85
tp3028
(lp3029
g37
as(g111
g65
tp3030
(lp3031
g37
as(g114
g91
tp3032
(lp3033
g37
as(g1475
g41
tp3034
(lp3035
g37
as(g358
g120
tp3036
(lp3037
g10
as(g94
g27
tp3038
(lp3039
g10
as(g33
g120
tp3040
(lp3041
g10
as(g450
g51
tp3042
(lp3043
g10
as(VTrack/TrackVertexMonitor/track IP X vs eta
p3044
g188
tp3045
(lp3046
g48
ag49
as(g718
g81
tp3047
(lp3048
g37
as(g284
g91
tp3049
(lp3050
g37
as(g254
g34
tp3051
(lp3052
g10
as(g30
g120
tp3053
(lp3054
g10
as(g257
g120
tp3055
(lp3056
g10
as(g382
g85
tp3057
(lp3058
g10
as(g423
g21
tp3059
(lp3060
g10
as(g1235
g7
tp3061
(lp3062
g10
as(g327
g81
tp3063
(lp3064
g37
as(g583
g91
tp3065
(lp3066
g10
as(g347
g45
tp3067
(lp3068
g48
ag49
as(g33
g81
tp3069
(lp3070
g37
as(g180
g120
tp3071
(lp3072
g10
as(g1618
g124
tp3073
(lp3074
g10
as(g682
g34
tp3075
(lp3076
g10
as(g447
g15
tp3077
(lp3078
g10
as(g50
g15
tp3079
(lp3080
g37
as(g332
g7
tp3081
(lp3082
g10
as(g327
g65
tp3083
(lp3084
g37
as(g117
g45
tp3085
(lp3086
g48
ag49
as(g1
g65
tp3087
(lp3088
g37
as(g161
g34
tp3089
(lp3090
g37
as(g257
g21
tp3091
(lp3092
g10
as(g661
g81
tp3093
(lp3094
g10
as(g84
g51
tp3095
(lp3096
g37
as(g94
g65
tp3097
(lp3098
g37
as(g515
g55
tp3099
(lp3100
g10
as(g679
g120
tp3101
(lp3102
g10
as(g266
g85
tp3103
(lp3104
g10
as(g327
g91
tp3105
(lp3106
g37
as(g344
g124
tp3107
(lp3108
g10
as(g417
g81
tp3109
(lp3110
g37
as(g50
g55
tp3111
(lp3112
g10
as(g586
g45
tp3113
(lp3114
g48
ag49
as(g341
g91
tp3115
(lp3116
g37
as(g603
g281
tp3117
(lp3118
g10
as(g30
g41
tp3119
(lp3120
g10
as(g64
g45
tp3121
(lp3122
g48
ag49
as(g1427
g45
tp3123
(lp3124
g48
ag49
as(g114
g65
tp3125
(lp3126
g10
as(g520
g27
tp3127
(lp3128
g10
as(g559
g7
tp3129
(lp3130
g10
as(g523
g21
tp3131
(lp3132
g10
as(g138
g81
tp3133
(lp3134
g37
as(g207
g7
tp3135
(lp3136
g10
as(g891
g91
tp3137
(lp3138
g10
as(g429
g120
tp3139
(lp3140
g10
as(g1
g124
tp3141
(lp3142
g10
as(g215
g65
tp3143
(lp3144
g10
as(g77
g81
tp3145
(lp3146
g10
as(g68
g15
tp3147
(lp3148
g37
as(g600
g21
tp3149
(lp3150
g10
as(g344
g65
tp3151
(lp3152
g10
as(VMakeDstSel.DaughtersPlots/Mass(D0)
p3153
((S'func'
p3154
S'skew'
p3155
tp3156
(S'distance'
p3157
S'variational_distance'
p3158
tp3159
tp3160
tp3161
(lp3162
g206
as(g542
g27
tp3163
(lp3164
g10
as(g542
g65
tp3165
(lp3166
g37
as(g327
g41
tp3167
(lp3168
g37
as(g894
g65
tp3169
(lp3170
g10
as(g44
g91
tp3171
(lp3172
g10
as(g679
g41
tp3173
(lp3174
g10
as(g158
g124
tp3175
(lp3176
g10
as(g554
g81
tp3177
(lp3178
g10
as(g572
g91
tp3179
(lp3180
g37
as(g106
g41
tp3181
(lp3182
g10
as(g97
g27
tp3183
(lp3184
g10
as(g1001
g51
tp3185
(lp3186
g10
as(VMakeDstSel.DaughtersPlots/Mass(D0)
p3187
((S'func'
p3188
S'kurt'
p3189
tp3190
(S'distance'
p3191
S'kolmogorov_smirnov_statistic'
p3192
tp3193
tp3194
tp3195
(lp3196
g206
as(g44
g85
tp3197
(lp3198
g10
as(g71
g91
tp3199
(lp3200
g37
as(g11
g7
tp3201
(lp3202
g10
as(g666
g91
tp3203
(lp3204
g167
as(g387
g21
tp3205
(lp3206
g10
as(g289
g120
tp3207
(lp3208
g10
as(g332
g34
tp3209
(lp3210
g10
as(g129
g15
tp3211
(lp3212
g10
as(g761
g51
tp3213
(lp3214
g37
as(g135
g7
tp3215
(lp3216
g10
as(g382
g21
tp3217
(lp3218
g10
as(g429
g27
tp3219
(lp3220
g10
as(g350
g91
tp3221
(lp3222
g37
as(g88
g65
tp3223
(lp3224
g10
as(g1383
g21
tp3225
(lp3226
g10
as(g215
g27
tp3227
(lp3228
g10
as(g494
g15
tp3229
(lp3230
g10
as(g97
g15
tp3231
(lp3232
g10
as(g480
g55
tp3233
(lp3234
g10
as(g447
g55
tp3235
(lp3236
g10
as(g619
g81
tp3237
(lp3238
g167
as(g994
g21
tp3239
(lp3240
g10
as(g30
g81
tp3241
(lp3242
g10
as(g894
g55
tp3243
(lp3244
g10
as(g679
g21
tp3245
(lp3246
g10
as(g24
g124
tp3247
(lp3248
g10
as(g475
g55
tp3249
(lp3250
g10
as(g111
g41
tp3251
(lp3252
g37
as(g251
g81
tp3253
(lp3254
g37
as(g44
g55
tp3255
(lp3256
g10
as(g1928
g51
tp3257
(lp3258
g37
as(g706
g85
tp3259
(lp3260
g10
as(g458
g91
tp3261
(lp3262
g37
as(g788
g55
tp3263
(lp3264
g10
as(g312
g85
tp3265
(lp3266
g37
as(g661
g124
tp3267
(lp3268
g10
as(g1427
g65
tp3269
(lp3270
g10
as(g480
g81
tp3271
(lp3272
g37
as(g526
g55
tp3273
(lp3274
g10
as(g526
g65
tp3275
(lp3276
g10
as(g138
g85
tp3277
(lp3278
g37
as(g358
g51
tp3279
(lp3280
g37
as(g706
g91
tp3281
(lp3282
g10
as(g458
g85
tp3283
(lp3284
g10
as(g494
g7
tp3285
(lp3286
g10
as(VMakeDstSel.DaughtersPlots/Mass(D0)
p3287
((S'func'
p3288
S'skew'
p3289
tp3290
(g3288
S'kurt'
p3291
tp3292
tp3293
tp3294
(lp3295
g206
as(g338
g34
tp3296
(lp3297
g37
as(g61
g120
tp3298
(lp3299
g10
as(VTrack/TrackVertexMonitor/twoprong mass (GeV)
p3300
((S'func'
p3301
S'mean'
p3302
tp3303
(S'distance'
p3304
S'variational_distance'
p3305
tp3306
tp3307
tp3308
(lp3309
g206
as(g168
g120
tp3310
(lp3311
g10
as(g1427
g7
tp3312
(lp3313
g10
as(g559
g21
tp3314
(lp3315
g10
as(g33
g124
tp3316
(lp3317
g10
as(g913
g45
tp3318
(lp3319
g48
ag49
as(g207
g41
tp3320
(lp3321
g10
as(g464
g85
tp3322
(lp3323
g37
as(g117
g65
tp3324
(lp3325
g10
as(VTrack/TrackVertexMonitor/twoprong mass (GeV)
p3326
((S'func'
p3327
S'mean'
p3328
tp3329
(S'distance'
p3330
S'kolmogorov_smirnov_statistic'
p3331
tp3332
tp3333
tp3334
(lp3335
g232
as(g429
g85
tp3336
(lp3337
g10
as(g266
g51
tp3338
(lp3339
g10
as(g266
g81
tp3340
(lp3341
g37
as(g489
g124
tp3342
(lp3343
g10
as(g749
g45
tp3344
(lp3345
g48
ag49
as(g64
g51
tp3346
(lp3347
g10
as(g661
g85
tp3348
(lp3349
g10
as(g1475
g45
tp3350
(lp3351
g49
as(g475
g21
tp3352
(lp3353
g10
as(VTrack/TrackVertexMonitor/fast track IP X vs eta
p3354
g188
tp3355
(lp3356
g48
ag49
as(g74
g21
tp3357
(lp3358
g10
as(g327
g15
tp3359
(lp3360
g37
as(g58
g7
tp3361
(lp3362
g10
as(g233
g21
tp3363
(lp3364
g10
as(g1026
g34
tp3365
(lp3366
g37
as(g453
g34
tp3367
(lp3368
g10
as(g263
g45
tp3369
(lp3370
g48
ag49
as(g153
g27
tp3371
(lp3372
g10
as(g994
g81
tp3373
(lp3374
g10
as(g241
g34
tp3375
(lp3376
g167
as(g515
g51
tp3377
(lp3378
g10
as(g2712
g1823
tp3379
(lp3380
g10
as(g164
g65
tp3381
(lp3382
g167
as(g251
g41
tp3383
(lp3384
g37
as(g64
g41
tp3385
(lp3386
g10
as(g758
g21
tp3387
(lp3388
g10
as(g289
g65
tp3389
(lp3390
g10
as(g338
g124
tp3391
(lp3392
g10
as(g248
g65
tp3393
(lp3394
g10
as(g88
g15
tp3395
(lp3396
g10
as(g1383
g81
tp3397
(lp3398
g10
as(g289
g45
tp3399
(lp3400
g48
ag49
as(g603
g2674
tp3401
(lp3402
g10
as(g464
g41
tp3403
(lp3404
g37
as(g284
g55
tp3405
(lp3406
g10
as(g515
g34
tp3407
(lp3408
g10
as(g207
g65
tp3409
(lp3410
g37
as(g68
g7
tp3411
(lp3412
g10
as(g215
g41
tp3413
(lp3414
g10
as(g269
g65
tp3415
(lp3416
g37
as(g682
g85
tp3417
(lp3418
g10
as(g426
g120
tp3419
(lp3420
g10
as(g1928
g45
tp3421
(lp3422
g48
ag49
as(g661
g27
tp3423
(lp3424
g10
as(VTrack/TrackVertexMonitor/twoprong mass (GeV)
p3425
((S'func'
p3426
S'var'
p3427
tp3428
(S'distance'
p3429
S'kolmogorov_smirnov_statistic'
p3430
tp3431
tp3432
tp3433
(lp3434
g206
as(VOT/OTTrackMonitor/station3/residualgood
p3435
((S'func'
p3436
S'skew'
p3437
tp3438
(S'distance'
p3439
S'variational_distance'
p3440
tp3441
tp3442
tp3443
(lp3444
g206
as(g100
g65
tp3445
(lp3446
g37
as(g572
g15
tp3447
(lp3448
g10
as(g619
g27
tp3449
(lp3450
g10
as(g296
g51
tp3451
(lp3452
g37
as(g1945
g85
tp3453
(lp3454
g10
as(VTrack/TrackMonitor/Long/ghostProb
p3455
((S'func'
p3456
S'mean'
p3457
tp3458
(g3456
S'var'
p3459
tp3460
tp3461
tp3462
(lp3463
g206
as(g1
g120
tp3464
(lp3465
g10
as(g207
g81
tp3466
(lp3467
g37
as(VTrack/TrackVertexMonitor/fast track IP Y vs phi
p3468
g188
tp3469
(lp3470
g48
ag49
as(g88
g21
tp3471
(lp3472
g10
as(g542
g91
tp3473
(lp3474
g10
as(g461
g27
tp3475
(lp3476
g10
as(g1001
g91
tp3477
(lp3478
g37
as(g150
g45
tp3479
(lp3480
g48
ag49
as(g97
g41
tp3481
(lp3482
g10
as(g1945
g7
tp3483
(lp3484
g10
as(g84
g124
tp3485
(lp3486
g10
as(g129
g91
tp3487
(lp3488
g37
as(g18
g51
tp3489
(lp3490
g10
as(g523
g81
tp3491
(lp3492
g37
as(g168
g65
tp3493
(lp3494
g37
as(g542
g15
tp3495
(lp3496
g37
as(g913
g65
tp3497
(lp3498
g10
as(g1475
g51
tp3499
(lp3500
g10
as(g426
g41
tp3501
(lp3502
g37
as(VRICH/RiLongTrkEff/All/effVPt
p3503
g188
tp3504
(lp3505
g48
ag49
as(g144
(g280
g146
tp3506
tp3507
(lp3508
g10
as(g583
g51
tp3509
(lp3510
g10
as(g994
g7
tp3511
(lp3512
g10
as(g2188
g55
tp3513
(lp3514
g10
as(g795
g7
tp3515
(lp3516
g10
as(g426
g85
tp3517
(lp3518
g10
as(g269
g41
tp3519
(lp3520
g37
as(g80
g124
tp3521
(lp3522
g10
as(g180
g85
tp3523
(lp3524
g10
as(g1134
g65
tp3525
(lp3526
g10
as(g241
g7
tp3527
(lp3528
g244
as(g494
g65
tp3529
(lp3530
g10
as(g114
g120
tp3531
(lp3532
g10
as(g480
g7
tp3533
(lp3534
g10
as(g266
g55
tp3535
(lp3536
g10
as(g1643
g27
tp3537
(lp3538
g10
as(g1383
g41
tp3539
(lp3540
g10
as(g58
g55
tp3541
(lp3542
g10
as(g1235
g51
tp3543
(lp3544
g37
as(g891
g34
tp3545
(lp3546
g10
as(g559
g15
tp3547
(lp3548
g10
as(g71
g55
tp3549
(lp3550
g10
as(g33
g91
tp3551
(lp3552
g37
as(g24
g7
tp3553
(lp3554
g10
as(g420
g124
tp3555
(lp3556
g10
as(VMakeDstSel.DaughtersPlots/Mass(D0)
p3557
((S'func'
p3558
S'kurt'
p3559
tp3560
(S'distance'
p3561
S'variational_distance'
p3562
tp3563
tp3564
tp3565
(lp3566
g206
as(g64
g120
tp3567
(lp3568
g10
as(g114
g15
tp3569
(lp3570
g10
as(g600
g120
tp3571
(lp3572
g10
as(g260
g124
tp3573
(lp3574
g10
as(g559
g45
tp3575
(lp3576
g48
ag49
as(VPROTO/ChargedProtoANNPIDMoni/Downstream/ProtonANN
p3577
((S'func'
p3578
S'mean'
p3579
tp3580
(g3578
S'skew'
p3581
tp3582
tp3583
tp3584
(lp3585
g206
as(VPROTO/ChargedProtoANNPIDMoni/Downstream/ProtonANN
p3586
((S'func'
p3587
S'skew'
p3588
tp3589
(S'distance'
p3590
S'variational_distance'
p3591
tp3592
tp3593
tp3594
(lp3595
g206
as(g475
g41
tp3596
(lp3597
g37
as(g718
g55
tp3598
(lp3599
g10
as(g269
g21
tp3600
(lp3601
g10
as(g440
g45
tp3602
(lp3603
g48
ag49
as(g718
g91
tp3604
(lp3605
g37
as(g241
g81
tp3606
(lp3607
g167
as(g180
g65
tp3608
(lp3609
g10
as(g269
g120
tp3610
(lp3611
g10
as(g1
g21
tp3612
(lp3613
g10
as(g494
g124
tp3614
(lp3615
g10
as(g426
g65
tp3616
(lp3617
g10
as(VTrack/TrackVertexMonitor/twoprong mass (GeV)
p3618
((S'func'
p3619
S'var'
p3620
tp3621
(g3619
S'kurt'
p3622
tp3623
tp3624
tp3625
(lp3626
g206
as(g341
g85
tp3627
(lp3628
g10
as(g1026
g51
tp3629
(lp3630
g37
as(g666
g34
tp3631
(lp3632
g10
as(g2188
g21
tp3633
(lp3634
g10
as(g551
g81
tp3635
(lp3636
g37
as(g338
g21
tp3637
(lp3638
g10
as(g150
g51
tp3639
(lp3640
g10
as(g207
g21
tp3641
(lp3642
g10
as(g50
g7
tp3643
(lp3644
g10
as(g420
g21
tp3645
(lp3646
g10
as(g74
g51
tp3647
(lp3648
g10
as(g390
g55
tp3649
(lp3650
g244
as(g171
g34
tp3651
(lp3652
g10
as(g572
g34
tp3653
(lp3654
g10
as(g489
g7
tp3655
(lp3656
g10
as(g426
g21
tp3657
(lp3658
g10
as(g788
g85
tp3659
(lp3660
g10
as(g168
g85
tp3661
(lp3662
g10
as(g718
g51
tp3663
(lp3664
g37
as(g417
g45
tp3665
(lp3666
g48
ag49
as(g420
g91
tp3667
(lp3668
g37
as(g158
g15
tp3669
(lp3670
g10
as(g772
g34
tp3671
(lp3672
g37
as(g123
g55
tp3673
(lp3674
g10
as(g586
g124
tp3675
(lp3676
g10
as(g450
g124
tp3677
(lp3678
g10
as(VOT/OTTrackMonitor/station3/residualgood
p3679
((S'func'
p3680
S'var'
p3681
tp3682
(g3680
S'skew'
p3683
tp3684
tp3685
tp3686
(lp3687
g206
as(g387
g45
tp3688
(lp3689
g48
ag49
as(g135
g85
tp3690
(lp3691
g37
as(g33
g41
tp3692
(lp3693
g10
as(g158
g51
tp3694
(lp3695
g10
as(g245
g15
tp3696
(lp3697
g10
as(g100
g85
tp3698
(lp3699
g10
as(g1618
g21
tp3700
(lp3701
g10
as(g327
g55
tp3702
(lp3703
g10
as(g453
g15
tp3704
(lp3705
g10
as(g241
g120
tp3706
(lp3707
g167
as(g1235
g45
tp3708
(lp3709
g48
ag49
as(g472
g27
tp3710
(lp3711
g10
as(g1928
g85
tp3712
(lp3713
g10
as(g666
g85
tp3714
(lp3715
g10
as(g551
g120
tp3716
(lp3717
g10
as(g100
g91
tp3718
(lp3719
g37
as(VTrack/TrackVertexMonitor/twoprong mass (GeV)
p3720
((S'func'
p3721
S'var'
p3722
tp3723
(S'distance'
p3724
S'variational_distance'
p3725
tp3726
tp3727
tp3728
(lp3729
g206
as(g88
g81
tp3730
(lp3731
g37
as(g475
g81
tp3732
(lp3733
g10
as(g335
g120
tp3734
(lp3735
g244
as(g795
g34
tp3736
(lp3737
g37
as(g1928
g91
tp3738
(lp3739
g37
as(g682
g7
tp3740
(lp3741
g10
as(g103
g34
tp3742
(lp3743
g10
as(g114
g41
tp3744
(lp3745
g10
as(VOT/OTTrackMonitor/station3/residualgood
p3746
((S'func'
p3747
S'kurt'
p3748
tp3749
(S'distance'
p3750
S'kolmogorov_smirnov_statistic'
p3751
tp3752
tp3753
tp3754
(lp3755
g232
as(g106
g21
tp3756
(lp3757
g10
as(g1928
g41
tp3758
(lp3759
g37
as(g913
g7
tp3760
(lp3761
g10
as(g80
g51
tp3762
(lp3763
g10
as(g11
g120
tp3764
(lp3765
g10
as(g1928
g55
tp3766
(lp3767
g10
as(g64
g124
tp3768
(lp3769
g10
as(VTrack/TrackMonitor/Long/ghostProb
p3770
((S'func'
p3771
S'var'
p3772
tp3773
(g3771
S'kurt'
p3774
tp3775
tp3776
tp3777
(lp3778
g206
as(VTrack/TrackMonitor/Long/ghostProb
p3779
((S'func'
p3780
S'kurt'
p3781
tp3782
(S'distance'
p3783
S'variational_distance'
p3784
tp3785
tp3786
tp3787
(lp3788
g232
as(g666
g65
tp3789
(lp3790
g10
as(g559
g34
tp3791
(lp3792
g10
as(g161
g45
tp3793
(lp3794
g48
ag49
as(g138
g120
tp3795
(lp3796
g10
as(g77
g51
tp3797
(lp3798
g10
as(g97
g51
tp3799
(lp3800
g37
as(g71
g51
tp3801
(lp3802
g10
as(g453
g81
tp3803
(lp3804
g37
as(g423
g15
tp3805
(lp3806
g10
as(g1134
g55
tp3807
(lp3808
g10
as(g111
g45
tp3809
(lp3810
g48
ag49
as(g749
g85
tp3811
(lp3812
g37
as(g761
g91
tp3813
(lp3814
g37
as(g33
g27
tp3815
(lp3816
g10
as(g994
g34
tp3817
(lp3818
g10
as(g772
g124
tp3819
(lp3820
g10
as(g711
g91
tp3821
(lp3822
g10
as(g11
g91
tp3823
(lp3824
g37
as(g335
g34
tp3825
(lp3826
g37
as(g1001
g81
tp3827
(lp3828
g37
as(g161
g15
tp3829
(lp3830
g10
as(g1383
g34
tp3831
(lp3832
g10
ag37
as(g1618
g41
tp3833
(lp3834
g10
as(g795
g124
tp3835
(lp3836
g10
as(g164
g27
tp3837
(lp3838
g167
as(g106
g85
tp3839
(lp3840
g37
as(g153
g55
tp3841
(lp3842
g10
as(g141
g51
tp3843
(lp3844
g37
as(g1475
g34
tp3845
(lp3846
g10
as(g153
g7
tp3847
(lp3848
g10
as(g464
g7
tp3849
(lp3850
g10
as(g583
g34
tp3851
(lp3852
g37
as(g761
g81
tp3853
(lp3854
g37
as(VPROTO/ChargedProtoANNPIDMoni/Downstream/ProtonANN
p3855
((S'func'
p3856
S'mean'
p3857
tp3858
(S'distance'
p3859
S'kolmogorov_smirnov_statistic'
p3860
tp3861
tp3862
tp3863
(lp3864
g232
as(g11
g45
tp3865
(lp3866
g48
ag49
as(g1134
g51
tp3867
(lp3868
g37
as(g245
g21
tp3869
(lp3870
g10
as(g74
g45
tp3871
(lp3872
g48
ag49
as(g1235
g85
tp3873
(lp3874
g37
as(g33
g45
tp3875
(lp3876
g48
ag49
as(g600
g124
tp3877
(lp3878
g10
as(g494
g85
tp3879
(lp3880
g37
as(g1643
g85
tp3881
(lp3882
g10
as(g164
g21
tp3883
(lp3884
g167
as(g141
g27
tp3885
(lp3886
g10
as(g254
g15
tp3887
(lp3888
g10
as(g97
g85
tp3889
(lp3890
g37
as(g566
g45
tp3891
(lp3892
g48
ag49
as(g772
g65
tp3893
(lp3894
g37
as(g711
g120
tp3895
(lp3896
g10
as(g248
g81
tp3897
(lp3898
g10
as(g269
g91
tp3899
(lp3900
g37
as(g257
g81
tp3901
(lp3902
g10
as(g1928
g81
tp3903
(lp3904
g37
as(g523
g15
tp3905
(lp3906
g10
as(g1643
g91
tp3907
(lp3908
g10
as(g661
g45
tp3909
(lp3910
g48
ag49
as(g1427
g41
tp3911
(lp3912
g37
as(g2188
g81
tp3913
(lp3914
g10
as(g2712
g1527
tp3915
(lp3916
g48
ag49
as(g526
g81
tp3917
(lp3918
g10
as(g38
g45
tp3919
(lp3920
g49
as(g408
g91
tp3921
(lp3922
g37
as(g64
g55
tp3923
(lp3924
g10
as(g161
g21
tp3925
(lp3926
g10
as(g994
g85
tp3927
(lp3928
g10
as(g469
g85
tp3929
(lp3930
g37
as(g358
g81
tp3931
(lp3932
g37
as(g2188
g34
tp3933
(lp3934
g10
as(VTrack/TrackVertexMonitor/twoprong mass (GeV)
p3935
((S'func'
p3936
S'var'
p3937
tp3938
(g3936
S'skew'
p3939
tp3940
tp3941
tp3942
(lp3943
g206
as(g135
g81
tp3944
(lp3945
g37
as(g554
g55
tp3946
(lp3947
g10
as(g58
g65
tp3948
(lp3949
g37
as(g1190
g55
tp3950
(lp3951
g10
as(g475
g91
tp3952
(lp3953
g37
as(g913
g27
tp3954
(lp3955
g10
as(g327
g21
tp3956
(lp3957
g10
as(g245
g91
tp3958
(lp3959
g37
as(g586
g21
tp3960
(lp3961
g10
as(g296
g7
tp3962
(lp3963
g244
as(g141
g85
tp3964
(lp3965
g37
as(g405
g124
tp3966
(lp3967
g10
as(g542
g85
tp3968
(lp3969
g10
as(g475
g85
tp3970
(lp3971
g10
as(g144
(g280
g962
tp3972
tp3973
(lp3974
g10
as(g18
g27
tp3975
(lp3976
g10
as(g450
g27
tp3977
(lp3978
g10
as(g447
g21
tp3979
(lp3980
g10
as(g1945
g51
tp3981
(lp3982
g10
as(g795
g45
tp3983
(lp3984
g48
ag49
as(g494
g34
tp3985
(lp3986
g10
as(g241
g65
tp3987
(lp3988
g167
as(g138
g55
tp3989
(lp3990
g10
as(g429
g81
tp3991
(lp3992
g10
as(g344
g51
tp3993
(lp3994
g10
as(g382
g55
tp3995
(lp3996
g10
as(g33
g21
tp3997
(lp3998
g10
as(g338
g65
tp3999
(lp4000
g37
as(g480
g45
tp4001
(lp4002
g48
ag49
as(VMakeDstSel.DaughtersPlots/Mass(D0)
p4003
((S'func'
p4004
S'mean'
p4005
tp4006
(S'distance'
p4007
S'variational_distance'
p4008
tp4009
tp4010
tp4011
(lp4012
g206
as(VOT/OTTrackMonitor/station3/residualgood
p4013
((S'func'
p4014
S'var'
p4015
tp4016
(g4014
S'kurt'
p4017
tp4018
tp4019
tp4020
(lp4021
g206
as(g1945
g120
tp4022
(lp4023
g10
as(g106
g45
tp4024
(lp4025
g48
ag49
as(g241
g27
tp4026
(lp4027
g10
as(g480
g91
tp4028
(lp4029
g37
as(g1001
g41
tp4030
(lp4031
g37
as(g603
(g279
g145
tp4032
tp4033
(lp4034
g10
as(g569
g27
tp4035
(lp4036
g10
as(g569
g15
tp4037
(lp4038
g10
as(g379
g34
tp4039
(lp4040
g10
as(g168
g34
tp4041
(lp4042
g37
as(g994
g51
tp4043
(lp4044
g10
as(g600
g27
tp4045
(lp4046
g10
as(g1134
g85
tp4047
(lp4048
g10
as(g248
g41
tp4049
(lp4050
g10
as(g129
g120
tp4051
(lp4052
g10
as(g257
g41
tp4053
(lp4054
g10
as(g50
g27
tp4055
(lp4056
g10
as(g1427
g51
tp4057
(lp4058
g10
as(g559
g55
tp4059
(lp4060
g10
as(g168
g81
tp4061
(lp4062
g10
as(g464
g51
tp4063
(lp4064
g37
as(g1383
g51
tp4065
(lp4066
g10
as(g566
g85
tp4067
(lp4068
g10
as(g269
g55
tp4069
(lp4070
g10
as(g68
g51
tp4071
(lp4072
g10
as(g994
g15
tp4073
(lp4074
g10
as(g382
g91
tp4075
(lp4076
g167
as(g711
g55
tp4077
(lp4078
g10
as(g405
g45
tp4079
(lp4080
g48
ag49
as(g913
g41
tp4081
(lp4082
g10
as(g551
g85
tp4083
(lp4084
g37
as(g254
g41
tp4085
(lp4086
g10
as(g440
g27
tp4087
(lp4088
g10
as(g405
g91
tp4089
(lp4090
g37
as(g1383
g15
tp4091
(lp4092
g10
as(g245
g120
tp4093
(lp4094
g10
as(g566
g120
tp4095
(lp4096
g10
as(g382
g124
tp4097
(lp4098
g10
as(g1001
g7
tp4099
(lp4100
g10
as(g80
g45
tp4101
(lp4102
g48
ag49
as(g241
g21
tp4103
(lp4104
g10
as(g1026
g124
tp4105
(lp4106
g10
as(g1
g41
tp4107
(lp4108
g10
as(g405
g85
tp4109
(lp4110
g37
as(g894
g21
tp4111
(lp4112
g10
as(g542
g21
tp4113
(lp4114
g10
as(g18
g81
tp4115
(lp4116
g167
as(g58
g15
tp4117
(lp4118
g10
as(g18
g7
tp4119
(lp4120
g244
as(g117
g41
tp4121
(lp4122
g10
as(g158
g120
tp4123
(lp4124
g10
as(g718
g120
tp4125
(lp4126
g10
as(g706
g81
tp4127
(lp4128
g10
as(g132
g41
tp4129
(lp4130
g10
as(g161
g41
tp4131
(lp4132
g10
as(g472
g51
tp4133
(lp4134
g10
as(g144
g963
tp4135
(lp4136
g10
as(g572
g7
tp4137
(lp4138
g10
as(g1945
g45
tp4139
(lp4140
g48
ag49
as(g480
g41
tp4141
(lp4142
g37
as(g836
g85
tp4143
(lp4144
g37
as(g758
g81
tp4145
(lp4146
g37
as(g619
g65
tp4147
(lp4148
g10
as(g913
g34
tp4149
(lp4150
g10
as(VMakeDstSel.DaughtersPlots/Mass(D0)
p4151
((S'distance'
p4152
S'variational_distance'
p4153
tp4154
(g4152
S'kolmogorov_smirnov_statistic'
p4155
tp4156
tp4157
tp4158
(lp4159
g538
ag539
as(g254
g27
tp4160
(lp4161
g10
as(g711
g7
tp4162
(lp4163
g10
as(g387
g85
tp4164
(lp4165
g37
as(g554
g34
tp4166
(lp4167
g10
as(g129
g81
tp4168
(lp4169
g10
as(g88
g7
tp4170
(lp4171
g10
as(g526
g124
tp4172
(lp4173
g10
as(VOT/OTTrackMonitor/station3/residualgood
p4174
((S'func'
p4175
S'skew'
p4176
tp4177
(g4175
S'kurt'
p4178
tp4179
tp4180
tp4181
(lp4182
g206
as(g374
g120
tp4183
(lp4184
g10
as(g1235
g27
tp4185
(lp4186
g10
as(g207
g91
tp4187
(lp4188
g37
as(g718
g27
tp4189
(lp4190
g10
as(g600
g55
tp4191
(lp4192
g10
as(g994
g41
tp4193
(lp4194
g10
as(g245
g124
tp4195
(lp4196
g10
as(g106
g91
tp4197
(lp4198
g37
as(VTrack/TrackMonitor/Long/numiter
p4199
((S'func'
p4200
S'mean'
p4201
tp4202
(S'distance'
p4203
S'kolmogorov_smirnov_statistic'
p4204
tp4205
tp4206
tp4207
(lp4208
g232
as(g1190
g7
tp4209
(lp4210
g10
as(g150
g65
tp4211
(lp4212
g10
as(g193
g81
tp4213
(lp4214
g10
as(g836
g51
tp4215
(lp4216
g37
as(g94
g124
tp4217
(lp4218
g10
as(g706
g41
tp4219
(lp4220
g10
as(g44
g65
tp4221
(lp4222
g10
as(g263
g124
tp4223
(lp4224
g10
as(g257
g15
tp4225
(lp4226
g10
as(g475
g65
tp4227
(lp4228
g10
as(g559
g120
tp4229
(lp4230
g10
as(g312
g51
tp4231
(lp4232
g37
as(g551
g15
tp4233
(lp4234
g37
as(g33
g65
tp4235
(lp4236
g37
as(g1235
g34
tp4237
(lp4238
g37
as(g666
g27
tp4239
(lp4240
g10
as(g97
g21
tp4241
(lp4242
g10
as(g440
g55
tp4243
(lp4244
g10
as(g138
g27
tp4245
(lp4246
g10
as(g84
g41
tp4247
(lp4248
g10
as(g1643
g41
tp4249
(lp4250
g10
as(g341
g15
tp4251
(lp4252
g10
as(g387
g34
tp4253
(lp4254
g10
as(g469
g65
tp4255
(lp4256
g10
as(VMuon/MuonPID/MonitorLong/hNIMtracks
p4257
((S'func'
p4258
S'mean'
p4259
tp4260
(g4258
S'var'
p4261
tp4262
tp4263
tp4264
(lp4265
g206
as(g405
g27
tp4266
(lp4267
g10
as(g429
g21
tp4268
(lp4269
g10
as(g795
g15
tp4270
(lp4271
g10
as(g50
g21
tp4272
(lp4273
g10
as(g836
g21
tp4274
(lp4275
g10
as(g453
g120
tp4276
(lp4277
g10
as(g263
g65
tp4278
(lp4279
g10
as(g417
g34
tp4280
(lp4281
g37
as(g458
g21
tp4282
(lp4283
g10
as(g390
g124
tp4284
(lp4285
g244
as(g269
g34
tp4286
(lp4287
g37
as(g18
g15
tp4288
(lp4289
g10
as(VMakeDstSel.DaughtersPlots/Mass(D0)
p4290
((S'func'
p4291
S'var'
p4292
tp4293
(g4291
S'skew'
p4294
tp4295
tp4296
tp4297
(lp4298
g206
as(g1618
g91
tp4299
(lp4300
g10
as(g344
g41
tp4301
(lp4302
g10
as(g526
g85
tp4303
(lp4304
g10
as(g1475
g65
tp4305
(lp4306
g10
as(g619
g45
tp4307
(lp4308
g167
as(g572
g51
tp4309
(lp4310
g37
as(g350
g21
tp4311
(lp4312
g10
as(g472
g15
tp4313
(lp4314
g10
ag37
as(g251
g124
tp4315
(lp4316
g10
as(g894
g15
tp4317
(lp4318
g10
as(g266
g7
tp4319
(lp4320
g10
as(g450
g41
tp4321
(lp4322
g10
as(g891
g21
tp4323
(lp4324
g10
as(g347
g55
tp4325
(lp4326
g10
as(VTrack/TrackVertexMonitor/twoprong doca vs phi
p4327
g188
tp4328
(lp4329
g48
ag49
as(g429
g91
tp4330
(lp4331
g37
as(g141
g7
tp4332
(lp4333
g10
as(g335
g85
tp4334
(lp4335
g37
as(g551
g45
tp4336
(lp4337
g48
ag49
as(g171
g124
tp4338
(lp4339
g10
as(g88
g51
tp4340
(lp4341
g10
as(g100
g21
tp4342
(lp4343
g10
as(g1235
g65
tp4344
(lp4345
g37
as(g38
g7
tp4346
(lp4347
g10
as(g382
g45
tp4348
(lp4349
g167
as(g559
g65
tp4350
(lp4351
g10
as(g50
g65
tp4352
(lp4353
g37
as(g135
g45
tp4354
(lp4355
g48
ag49
as(g254
g21
tp4356
(lp4357
g10
as(g494
g91
tp4358
(lp4359
g37
as(VTrack/TrackMonitor/Long/numiter
p4360
((S'func'
p4361
S'mean'
p4362
tp4363
(g4361
S'skew'
p4364
tp4365
tp4366
tp4367
(lp4368
g206
as(g97
g91
tp4369
(lp4370
g37
as(g1475
g124
tp4371
(lp4372
g10
as(g44
g27
tp4373
(lp4374
g10
as(g1026
g7
tp4375
(lp4376
g10
as(g80
g41
tp4377
(lp4378
g10
as(g312
g7
tp4379
(lp4380
g10
as(g464
g120
tp4381
(lp4382
g10
as(g408
g81
tp4383
(lp4384
g37
as(g417
g65
tp4385
(lp4386
g37
as(g77
g41
tp4387
(lp4388
g10
as(g312
g15
tp4389
(lp4390
g10
as(g71
g81
tp4391
(lp4392
g37
as(g572
g85
tp4393
(lp4394
g37
as(g327
g7
tp4395
(lp4396
g10
as(VMakeDstSel.DaughtersPlots/Mass(D0)
p4397
((S'func'
p4398
S'mean'
p4399
tp4400
(g4398
S'kurt'
p4401
tp4402
tp4403
tp4404
(lp4405
g206
as(g100
g41
tp4406
(lp4407
g37
as(g706
g15
tp4408
(lp4409
g10
as(g248
g91
tp4410
(lp4411
g10
as(g50
g124
tp4412
(lp4413
g10
as(g554
g91
tp4414
(lp4415
g10
as(g554
g41
tp4416
(lp4417
g10
as(g1643
g45
tp4418
(lp4419
g48
ag49
as(g74
g65
tp4420
(lp4421
g10
as(g54
g41
tp4422
(lp4423
g10
as(g583
g120
tp4424
(lp4425
g10
as(g2188
g91
tp4426
(lp4427
g37
as(g450
g34
tp4428
(lp4429
g10
as(g461
g21
tp4430
(lp4431
g10
as(g257
g91
tp4432
(lp4433
g37
as(g38
g15
tp4434
(lp4435
g10
as(g260
g51
tp4436
(lp4437
g10
as(g64
g21
tp4438
(lp4439
g10
as(g390
g81
tp4440
(lp4441
g167
as(g338
g81
tp4442
(lp4443
g37
as(g44
g81
tp4444
(lp4445
g10
as(g417
g124
tp4446
(lp4447
g10
as(g44
g7
tp4448
(lp4449
g10
as(g274
g65
tp4450
(lp4451
g10
as(g1026
g27
tp4452
(lp4453
g10
as(g266
g15
tp4454
(lp4455
g10
as(VOT/OTTrackMonitor/station3/residualgood
p4456
((S'func'
p4457
S'skew'
p4458
tp4459
(S'distance'
p4460
S'kolmogorov_smirnov_statistic'
p4461
tp4462
tp4463
tp4464
(lp4465
g206
as(g97
g34
tp4466
(lp4467
g10
as(g447
g7
tp4468
(lp4469
g10
as(g472
g55
tp4470
(lp4471
g10
as(g440
g51
tp4472
(lp4473
g10
as(g289
g124
tp4474
(lp4475
g10
as(g111
g81
tp4476
(lp4477
g37
as(g132
g27
tp4478
(lp4479
g10
as(g891
g81
tp4480
(lp4481
g10
as(g74
g124
tp4482
(lp4483
g10
as(g94
g7
tp4484
(lp4485
g10
as(g515
g7
tp4486
(lp4487
g10
as(g566
g27
tp4488
(lp4489
g10
as(g453
g45
tp4490
(lp4491
g48
as(g180
g21
tp4492
(lp4493
g10
as(g84
g34
tp4494
(lp4495
g10
as(g68
g27
tp4496
(lp4497
g10
as(g263
g7
tp4498
(lp4499
g10
as(g603
g147
tp4500
(lp4501
g10
as(g1026
g55
tp4502
(lp4503
g10
as(g263
g41
tp4504
(lp4505
g10
as(g429
g65
tp4506
(lp4507
g10
as(g711
g81
tp4508
(lp4509
g10
as(g1190
g124
tp4510
(lp4511
g10
as(g619
g85
tp4512
(lp4513
g10
as(g135
g65
tp4514
(lp4515
g37
as(g1134
g81
tp4516
(lp4517
g10
as(g100
g124
tp4518
(lp4519
g10
as(g365
g65
tp4520
(lp4521
g167
as(g679
g55
tp4522
(lp4523
g10
as(g891
g120
tp4524
(lp4525
g10
as(g706
g21
tp4526
(lp4527
g10
as(g566
g34
tp4528
(lp4529
g10
as(g212
g124
tp4530
(lp4531
g10
as(g30
g21
tp4532
(lp4533
g10
as(g193
g21
tp4534
(lp4535
g10
as(g233
g34
tp4536
(lp4537
g37
as(g461
g85
tp4538
(lp4539
g10
as(g572
g45
tp4540
(lp4541
g48
ag49
as(g551
g34
tp4542
(lp4543
g10
as(g335
g41
tp4544
(lp4545
g37
as(g387
g51
tp4546
(lp4547
g10
as(g132
g65
tp4548
(lp4549
g10
as(g144
g2685
tp4550
(lp4551
g10
as(g1618
g34
tp4552
(lp4553
g10
as(g586
g41
tp4554
(lp4555
g37
as(g68
g120
tp4556
(lp4557
g10
as(g1134
g91
tp4558
(lp4559
g37
as(g77
g85
tp4560
(lp4561
g10
as(g526
g7
tp4562
(lp4563
g10
as(g171
g81
tp4564
(lp4565
g10
as(g429
g51
tp4566
(lp4567
g10
as(g795
g55
tp4568
(lp4569
g10
as(g241
g124
tp4570
(lp4571
g244
as(g1001
g21
tp4572
(lp4573
g10
as(g338
g55
tp4574
(lp4575
g10
as(g274
g120
tp4576
(lp4577
g10
as(g1427
g120
tp4578
(lp4579
g10
as(g263
g27
tp4580
(lp4581
g10
as(g260
g45
tp4582
(lp4583
g48
ag49
as(g347
g91
tp4584
(lp4585
g37
as(g207
g34
tp4586
(lp4587
g10
ag37
as(g520
g7
tp4588
(lp4589
g10
as(g193
g15
tp4590
(lp4591
g10
as(g624
g85
tp4592
(lp4593
g10
as(g111
g124
tp4594
(lp4595
g10
as(g251
g7
tp4596
(lp4597
g10
as(g123
g34
tp4598
(lp4599
g10
as(g382
g81
tp4600
(lp4601
g167
as(g523
g85
tp4602
(lp4603
g10
as(g423
g85
tp4604
(lp4605
g37
as(g1945
g34
tp4606
(lp4607
g10
as(VPROTO/ChargedProtoANNPIDMoni/Downstream/ProtonANN
p4608
((S'func'
p4609
S'skew'
p4610
tp4611
(S'distance'
p4612
S'kolmogorov_smirnov_statistic'
p4613
tp4614
tp4615
tp4616
(lp4617
g206
as(g80
g7
tp4618
(lp4619
g10
as(g1427
g81
tp4620
(lp4621
g37
as(g464
g81
tp4622
(lp4623
g37
as(g788
g91
tp4624
(lp4625
g37
as(VTrack/TrackMonitor/Long/ghostProb
p4626
((S'func'
p4627
S'skew'
p4628
tp4629
(S'distance'
p4630
S'kolmogorov_smirnov_statistic'
p4631
tp4632
tp4633
tp4634
(lp4635
g232
as(g461
g41
tp4636
(lp4637
g10
as(g193
g55
tp4638
(lp4639
g10
as(g458
g55
tp4640
(lp4641
g10
as(g374
g15
tp4642
(lp4643
g10
as(g1026
g65
tp4644
(lp4645
g37
as(g68
g81
tp4646
(lp4647
g37
as(g420
g65
tp4648
(lp4649
g10
as(g542
g41
tp4650
(lp4651
g37
as(g150
g85
tp4652
(lp4653
g10
as(g68
g55
tp4654
(lp4655
g10
as(g68
g85
tp4656
(lp4657
g37
as(g379
g51
tp4658
(lp4659
g37
as(g772
g51
tp4660
(lp4661
g37
as(g472
g65
tp4662
(lp4663
g10
as(g379
g21
tp4664
(lp4665
g10
as(VMakeDstSel.DaughtersPlots/Mass(D0)
p4666
((S'func'
p4667
S'mean'
p4668
tp4669
(S'distance'
p4670
S'kolmogorov_smirnov_statistic'
p4671
tp4672
tp4673
tp4674
(lp4675
g206
as(VPROTO/ChargedProtoANNPIDMoni/Downstream/ProtonANN
p4676
((S'func'
p4677
S'var'
p4678
tp4679
(S'distance'
p4680
S'kolmogorov_smirnov_statistic'
p4681
tp4682
tp4683
tp4684
(lp4685
g206
as(VTrack/TrackMonitor/Long/numiter
p4686
((S'func'
p4687
S'skew'
p4688
tp4689
(S'distance'
p4690
S'kolmogorov_smirnov_statistic'
p4691
tp4692
tp4693
tp4694
(lp4695
g232
as(g233
g65
tp4696
(lp4697
g10
as(g426
g124
tp4698
(lp4699
g10
as(g758
g85
tp4700
(lp4701
g10
as(g405
g55
tp4702
(lp4703
g10
as(g405
g7
tp4704
(lp4705
g10
as(g358
g45
tp4706
(lp4707
g48
ag49
as(g417
g15
tp4708
(lp4709
g37
as(g1643
g124
tp4710
(lp4711
g10
as(g464
g91
tp4712
(lp4713
g37
as(g586
g81
tp4714
(lp4715
g37
as(g523
g41
tp4716
(lp4717
g10
as(g624
g81
tp4718
(lp4719
g167
as(g374
g27
tp4720
(lp4721
g10
as(g749
g7
tp4722
(lp4723
g10
as(g551
g55
tp4724
(lp4725
g10
as(g682
g27
tp4726
(lp4727
g10
as(g117
g85
tp4728
(lp4729
g10
as(g1643
g65
tp4730
(lp4731
g10
as(g447
g81
tp4732
(lp4733
g10
as(g274
g41
tp4734
(lp4735
g10
as(g458
g124
tp4736
(lp4737
g10
as(g94
g41
tp4738
(lp4739
g37
as(g566
g15
tp4740
(lp4741
g10
as(g215
g55
tp4742
(lp4743
g10
as(g489
g81
tp4744
(lp4745
g37
as(g171
g85
tp4746
(lp4747
g10
as(g245
g65
tp4748
(lp4749
g10
as(g1945
g65
tp4750
(lp4751
g10
as(g171
g55
tp4752
(lp4753
g10
as(g1383
g45
tp4754
(lp4755
g48
ag49
as(g450
g21
tp4756
(lp4757
g10
as(g129
g51
tp4758
(lp4759
g10
as(g312
g65
tp4760
(lp4761
g10
as(g494
g27
tp4762
(lp4763
g10
as(g24
g21
tp4764
(lp4765
g10
as(g417
g7
tp4766
(lp4767
g10
as(g583
g85
tp4768
(lp4769
g10
as(g144
g1802
tp4770
(lp4771
g37
as(g461
g81
tp4772
(lp4773
g10
as(g475
g124
tp4774
(lp4775
g10
as(g542
g124
tp4776
(lp4777
g10
as(g61
g124
tp4778
(lp4779
g10
as(g894
g124
tp4780
(lp4781
g10
as(g347
g27
tp4782
(lp4783
g10
as(g68
g21
tp4784
(lp4785
g10
as(g289
g7
tp4786
(lp4787
g10
as(g38
g27
tp4788
(lp4789
g10
as(g682
g120
tp4790
(lp4791
g10
as(g193
g51
tp4792
(lp4793
g10
as(g74
g7
tp4794
(lp4795
g10
as(VOT/OTTrackMonitor/station3/residualgood
p4796
((S'func'
p4797
S'var'
p4798
tp4799
(S'distance'
p4800
S'variational_distance'
p4801
tp4802
tp4803
tp4804
(lp4805
g232
as(g24
g41
tp4806
(lp4807
g10
as(g193
g27
tp4808
(lp4809
g10
as(g464
g27
tp4810
(lp4811
g10
as(g761
g65
tp4812
(lp4813
g37
as(g97
g55
tp4814
(lp4815
g10
as(g84
g120
tp4816
(lp4817
g10
as(g1928
g7
tp4818
(lp4819
g10
as(g469
g124
tp4820
(lp4821
g10
as(g312
g81
tp4822
(lp4823
g37
as(g515
g27
tp4824
(lp4825
g10
as(g450
g55
tp4826
(lp4827
g10
as(g1618
g45
tp4828
(lp4829
g48
ag49
as(g347
g41
tp4830
(lp4831
g37
as(g257
g34
tp4832
(lp4833
g10
as(g100
g7
tp4834
(lp4835
g10
as(g68
g65
tp4836
(lp4837
g10
as(g494
g51
tp4838
(lp4839
g37
as(g312
g27
tp4840
(lp4841
g10
as(g405
g34
tp4842
(lp4843
g37
as(g624
g41
tp4844
(lp4845
g10
as(g212
g55
tp4846
(lp4847
g10
as(g296
g45
tp4848
(lp4849
g167
as(g458
g65
tp4850
(lp4851
g10
as(g1190
g85
tp4852
(lp4853
g37
as(g461
g120
tp4854
(lp4855
g10
as(g450
g45
tp4856
(lp4857
g48
ag49
as(g111
g91
tp4858
(lp4859
g37
as(g894
g45
tp4860
(lp4861
g48
ag49
as(g24
g65
tp4862
(lp4863
g10
as(g80
g21
tp4864
(lp4865
g10
as(g266
g21
tp4866
(lp4867
g10
as(g135
g34
tp4868
(lp4869
g10
as(g344
g45
tp4870
(lp4871
g48
ag49
as(g266
g120
tp4872
(lp4873
g10
as(g420
g45
tp4874
(lp4875
g48
ag49
as(g114
g45
tp4876
(lp4877
g48
ag49
as(g475
g34
tp4878
(lp4879
g10
as(g603
(g146
g323
tp4880
tp4881
(lp4882
g10
as(g469
g21
tp4883
(lp4884
g10
as(g758
g124
tp4885
(lp4886
g10
as(g64
g27
tp4887
(lp4888
g10
as(g489
g41
tp4889
(lp4890
g37
as(g365
g120
tp4891
(lp4892
g167
as(g347
g51
tp4893
(lp4894
g37
as(g718
g65
tp4895
(lp4896
g10
as(g289
g27
tp4897
(lp4898
g10
as(VTrack/TrackMonitor/Long/ghostProb
p4899
((S'func'
p4900
S'mean'
p4901
tp4902
(S'distance'
p4903
S'kolmogorov_smirnov_statistic'
p4904
tp4905
tp4906
tp4907
(lp4908
g232
as(g374
g91
tp4909
(lp4910
g37
as(g153
g41
tp4911
(lp4912
g10
as(g338
g45
tp4913
(lp4914
g48
ag49
as(g666
g41
tp4915
(lp4916
g10
as(g123
g91
tp4917
(lp4918
g37
as(g61
g91
tp4919
(lp4920
g10
as(VTrack/TrackMonitor/Long/ghostProb
p4921
((S'distance'
p4922
S'variational_distance'
p4923
tp4924
(g4922
S'kolmogorov_smirnov_statistic'
p4925
tp4926
tp4927
tp4928
(lp4929
g538
ag539
as(g114
g55
tp4930
(lp4931
g10
as(g68
g124
tp4932
(lp4933
g10
as(g215
g120
tp4934
(lp4935
g10
as(g269
g27
tp4936
(lp4937
g10
as(g706
g120
tp4938
(lp4939
g10
as(g554
g85
tp4940
(lp4941
g10
as(g374
g124
tp4942
(lp4943
g10
as(g795
g65
tp4944
(lp4945
g10
as(g523
g120
tp4946
(lp4947
g10
as(g111
g7
tp4948
(lp4949
g10
as(g153
g91
tp4950
(lp4951
g37
as(g132
g15
tp4952
(lp4953
g10
as(g711
g15
tp4954
(lp4955
g10
as(g132
g120
tp4956
(lp4957
g10
as(g284
g45
tp4958
(lp4959
g48
ag49
as(g718
g41
tp4960
(lp4961
g10
as(g94
g45
tp4962
(lp4963
g48
ag49
as(g153
g85
tp4964
(lp4965
g10
as(g464
g15
tp4966
(lp4967
g10
as(g350
g85
tp4968
(lp4969
g37
as(g417
g51
tp4970
(lp4971
g37
as(g586
g27
tp4972
(lp4973
g10
as(g913
g85
tp4974
(lp4975
g10
as(g1235
g41
tp4976
(lp4977
g37
as(g50
g41
tp4978
(lp4979
g37
as(g365
g15
tp4980
(lp4981
g167
as(g1001
g34
tp4982
(lp4983
g37
as(g718
g21
tp4984
(lp4985
g10
as(g215
g51
tp4986
(lp4987
g10
as(g289
g91
tp4988
(lp4989
g37
as(g603
g3506
tp4990
(lp4991
g10
as(g761
g27
tp4992
(lp4993
g10
as(g161
g120
tp4994
(lp4995
g10
as(g327
g27
tp4996
(lp4997
g10
as(g164
g124
tp4998
(lp4999
g167
as(g1134
g21
tp5000
(lp5001
g10
as(g423
g7
tp5002
(lp5003
g10
as(g426
g7
tp5004
(lp5005
g10
as(g382
g120
tp5006
(lp5007
g10
as(g1
g27
tp5008
(lp5009
g10
as(g408
g51
tp5010
(lp5011
g10
as(g423
g51
tp5012
(lp5013
g37
as(g241
g91
tp5014
(lp5015
g167
as(g111
g27
tp5016
(lp5017
g10
as(g566
g21
tp5018
(lp5019
g10
as(g1383
g55
tp5020
(lp5021
g10
as(g100
g51
tp5022
(lp5023
g37
as(g138
g15
tp5024
(lp5025
g37
as(g71
g124
tp5026
(lp5027
g10
as(g758
g27
tp5028
(lp5029
g10
as(g458
g27
tp5030
(lp5031
g10
as(g1427
g27
tp5032
(lp5033
g10
as(g1928
g65
tp5034
(lp5035
g10
as(g600
g51
tp5036
(lp5037
g37
as(g624
g65
tp5038
(lp5039
g10
as(g344
g34
tp5040
(lp5041
g10
as(g274
g124
tp5042
(lp5043
g10
as(g894
g34
tp5044
(lp5045
g10
as(g33
g55
tp5046
(lp5047
g10
as(g358
g34
tp5048
(lp5049
g10
as(g233
g7
tp5050
(lp5051
g10
as(g18
g91
tp5052
(lp5053
g167
as(g74
g15
tp5054
(lp5055
g10
as(g117
g120
tp5056
(lp5057
g10
as(g390
g51
tp5058
(lp5059
g37
as(g761
g41
tp5060
(lp5061
g10
as(g347
g7
tp5062
(lp5063
g10
as(g248
g55
tp5064
(lp5065
g10
as(g11
g27
tp5066
(lp5067
g10
as(g74
g85
tp5068
(lp5069
g10
as(g566
g55
tp5070
(lp5071
g10
as(g168
g124
tp5072
(lp5073
g10
as(g761
g7
tp5074
(lp5075
g10
as(g335
g15
tp5076
(lp5077
g37
as(g542
g7
tp5078
(lp5079
g10
as(g61
g7
tp5080
(lp5081
g10
as(g233
g91
tp5082
(lp5083
g10
as(g619
g21
tp5084
(lp5085
g10
as(g795
g120
tp5086
(lp5087
g10
as(g129
g34
tp5088
(lp5089
g10
as(g61
g81
tp5090
(lp5091
g10
as(g666
g45
tp5092
(lp5093
g167
as(g312
g21
tp5094
(lp5095
g10
as(g661
g120
tp5096
(lp5097
g10
as(g619
g51
tp5098
(lp5099
g10
as(g2188
g27
tp5100
(lp5101
g10
as(g111
g51
tp5102
(lp5103
g37
as(g135
g21
tp5104
(lp5105
g10
as(g123
g45
tp5106
(lp5107
g48
ag49
as(g480
g120
tp5108
(lp5109
g10
as(g251
g51
tp5110
(lp5111
g37
as(g88
g55
tp5112
(lp5113
g10
as(g994
g55
tp5114
(lp5115
g10
as(g158
g34
tp5116
(lp5117
g10
as(g11
g21
tp5118
(lp5119
g10
as(g682
g45
tp5120
(lp5121
g48
ag49
as(g248
g34
tp5122
(lp5123
g10
as(g469
g7
tp5124
(lp5125
g10
as(g103
g120
tp5126
(lp5127
g10
as(g559
g85
tp5128
(lp5129
g10
as(g1
g15
tp5130
(lp5131
g10
as(g569
g85
tp5132
(lp5133
g10
as(g572
g55
tp5134
(lp5135
g10
as(g135
g41
tp5136
(lp5137
g10
as(g54
g21
tp5138
(lp5139
g10
as(g248
g120
tp5140
(lp5141
g10
as(VTrack/TrackVertexMonitor/twoprong mass (GeV)
p5142
((S'func'
p5143
S'skew'
p5144
tp5145
(S'distance'
p5146
S'kolmogorov_smirnov_statistic'
p5147
tp5148
tp5149
tp5150
(lp5151
g206
as(g327
g51
tp5152
(lp5153
g37
as(g772
g21
tp5154
(lp5155
g10
as(g440
g34
tp5156
(lp5157
g10
as(g58
g27
tp5158
(lp5159
g10
as(g50
g85
tp5160
(lp5161
g37
as(g420
g85
tp5162
(lp5163
g10
as(g117
g55
tp5164
(lp5165
g10
as(g233
g27
tp5166
(lp5167
g10
as(g758
g45
tp5168
(lp5169
g48
as(g365
g124
tp5170
(lp5171
g167
as(g405
g15
tp5172
(lp5173
g37
as(g390
g120
tp5174
(lp5175
g10
as(g554
g124
tp5176
(lp5177
g10
as(g2188
g65
tp5178
(lp5179
g10
as(g260
g65
tp5180
(lp5181
g37
as(g408
g21
tp5182
(lp5183
g10
as(VTrack/TrackVertexMonitor/twoprong mass (GeV)
p5184
((S'func'
p5185
S'kurt'
p5186
tp5187
(S'distance'
p5188
S'variational_distance'
p5189
tp5190
tp5191
tp5192
(lp5193
g206
as(g54
g34
tp5194
(lp5195
g10
as(g387
g81
tp5196
(lp5197
g37
as(g426
g51
tp5198
(lp5199
g10
as(g472
g21
tp5200
(lp5201
g10
as(g129
g85
tp5202
(lp5203
g10
as(g138
g65
tp5204
(lp5205
g37
as(g1427
g55
tp5206
(lp5207
g10
as(g341
g27
tp5208
(lp5209
g10
as(g180
g124
tp5210
(lp5211
g10
as(g171
g51
tp5212
(lp5213
g10
as(g1427
g85
tp5214
(lp5215
g37
as(g1475
g55
tp5216
(lp5217
g10
as(g569
g55
tp5218
(lp5219
g10
as(g788
g65
tp5220
(lp5221
g37
as(g212
g51
tp5222
(lp5223
g37
as(g417
g91
tp5224
(lp5225
g37
as(g341
g55
tp5226
(lp5227
g10
as(g374
g7
tp5228
(lp5229
g10
as(g100
g34
tp5230
(lp5231
g10
as(g619
g124
tp5232
(lp5233
g10
as(g58
g120
tp5234
(lp5235
g10
as(g171
g15
tp5236
(lp5237
g10
as(g600
g15
tp5238
(lp5239
g10
as(g312
g34
tp5240
(lp5241
g10
as(g382
g51
tp5242
(lp5243
g10
as(g554
g65
tp5244
(lp5245
g10
as(g193
g120
tp5246
(lp5247
g10
as(g2188
g124
tp5248
(lp5249
g10
as(g241
g15
tp5250
(lp5251
g167
as(g405
g81
tp5252
(lp5253
g37
as(g795
g85
tp5254
(lp5255
g10
as(g11
g81
tp5256
(lp5257
g10
as(g164
g34
tp5258
(lp5259
g167
as(g464
g65
tp5260
(lp5261
g37
as(g661
g41
tp5262
(lp5263
g10
as(g1928
g27
tp5264
(lp5265
g10
as(g263
g91
tp5266
(lp5267
g37
as(g1475
g120
tp5268
(lp5269
g10
as(g542
g51
tp5270
(lp5271
g10
as(g327
g34
tp5272
(lp5273
g37
as(g772
g55
tp5274
(lp5275
g10
as(g440
g65
tp5276
(lp5277
g10
as(g453
g65
tp5278
(lp5279
g10
as(g603
g3972
tp5280
(lp5281
g37
as(g603
g1068
tp5282
(lp5283
g10
as(g711
g65
tp5284
(lp5285
g10
as(g144
g4880
tp5286
(lp5287
g10
as(g772
g81
tp5288
(lp5289
g37
as(g379
g41
tp5290
(lp5291
g10
as(g164
g7
tp5292
(lp5293
g167
as(g423
g124
tp5294
(lp5295
g10
as(g233
g41
tp5296
(lp5297
g37
as(g1134
g27
tp5298
(lp5299
g10
as(g135
g120
tp5300
(lp5301
g10
as(g387
g120
tp5302
(lp5303
g10
as(g24
g91
tp5304
(lp5305
g37
as(g711
g85
tp5306
(lp5307
g10
as(g24
g55
tp5308
(lp5309
g10
as(g1134
g7
tp5310
(lp5311
g10
as(g335
g91
tp5312
(lp5313
g167
as(g523
g51
tp5314
(lp5315
g10
as(g1475
g21
tp5316
(lp5317
g10
as(g358
g21
tp5318
(lp5319
g10
as(g71
g7
tp5320
(lp5321
g10
as(VTrack/TrackMonitor/Long/ghostProb
p5322
((S'func'
p5323
S'var'
p5324
tp5325
(S'distance'
p5326
S'variational_distance'
p5327
tp5328
tp5329
tp5330
(lp5331
g232
as(g894
g41
tp5332
(lp5333
g10
as(g241
g51
tp5334
(lp5335
g10
as(g180
g45
tp5336
(lp5337
g48
ag49
as(g447
g51
tp5338
(lp5339
g10
as(g260
g34
tp5340
(lp5341
g10
as(g335
g21
tp5342
(lp5343
g244
as(g440
g124
tp5344
(lp5345
g10
as(g758
g41
tp5346
(lp5347
g10
as(g1190
g34
tp5348
(lp5349
g10
as(g144
g4032
tp5350
(lp5351
g10
as(g207
g85
tp5352
(lp5353
g37
as(g666
g124
tp5354
(lp5355
g244
as(g772
g45
tp5356
(lp5357
g48
ag49
as(g1945
g41
tp5358
(lp5359
g10
as(g260
g21
tp5360
(lp5361
g10
as(g1190
g51
tp5362
(lp5363
g37
as(g168
g7
tp5364
(lp5365
g10
as(g761
g124
tp5366
(lp5367
g10
as(g461
g51
tp5368
(lp5369
g10
as(g489
g65
tp5370
(lp5371
g37
as(g84
g45
tp5372
(lp5373
g48
ag49
as(g1026
g91
tp5374
(lp5375
g37
as(g390
g34
tp5376
(lp5377
g167
as(VMakeDstSel.DaughtersPlots/Mass(D0)
p5378
((S'func'
p5379
S'var'
p5380
tp5381
(S'distance'
p5382
S'variational_distance'
p5383
tp5384
tp5385
tp5386
(lp5387
g206
as(g358
g85
tp5388
(lp5389
g37
as(g350
g45
tp5390
(lp5391
s(g171
g65
tp5392
(lp5393
g10
as(g472
g91
tp5394
(lp5395
g10
as(g161
g27
tp5396
(lp5397
g10
as(g269
g81
tp5398
(lp5399
g37
as(g2188
g85
tp5400
(lp5401
g10
as(g50
g45
tp5402
(lp5403
g48
ag49
as(VOT/OTHitEfficiencyMonitor/Module4/effvsdist
p5404
g188
tp5405
(lp5406
g48
ag49
as(g458
g34
tp5407
(lp5408
g10
as(g260
g120
tp5409
(lp5410
g10
as(g254
g120
tp5411
(lp5412
g10
as(g379
g27
tp5413
(lp5414
g10
as(g84
g81
tp5415
(lp5416
g37
as(g2188
g51
tp5417
(lp5418
g10
as(g420
g120
tp5419
(lp5420
g10
as(g269
g45
tp5421
(lp5422
g48
ag49
as(g551
g65
tp5423
(lp5424
g37
as(g758
g65
tp5425
(lp5426
g10
as(g171
g21
tp5427
(lp5428
g10
as(g1643
g120
tp5429
(lp5430
g10
as(g894
g81
tp5431
(lp5432
g37
as(g374
g81
tp5433
(lp5434
g10
as(g248
g45
tp5435
(lp5436
g48
ag49
as(g254
g51
tp5437
(lp5438
g10
as(g150
g7
tp5439
(lp5440
g10
as(g274
g27
tp5441
(lp5442
g10
as(g706
g34
tp5443
(lp5444
g10
as(g542
g34
tp5445
(lp5446
g37
as(g74
g81
tp5447
(lp5448
g10
as(g103
g45
tp5449
(lp5450
g48
ag49
as(g1618
g7
tp5451
(lp5452
g10
as(g554
g7
tp5453
(lp5454
g10
as(g1945
g91
tp5455
(lp5456
g37
as(g523
g45
tp5457
(lp5458
g48
ag49
as(g332
g124
tp5459
(lp5460
g10
as(g344
g91
tp5461
(lp5462
g37
as(g71
g85
tp5463
(lp5464
g10
as(g347
g120
tp5465
(lp5466
g10
as(g619
g34
tp5467
(lp5468
g10
as(g168
g15
tp5469
(lp5470
g37
as(g180
g7
tp5471
(lp5472
g10
as(g1618
g85
tp5473
(lp5474
g10
as(g212
g15
tp5475
(lp5476
g37
as(g365
g41
tp5477
(lp5478
g167
as(g158
g91
tp5479
(lp5480
g37
as(g312
g91
tp5481
(lp5482
g37
as(g64
g81
tp5483
(lp5484
g10
as(g77
g21
tp5485
(lp5486
g10
as(g344
g7
tp5487
(lp5488
g10
as(g450
g7
tp5489
(lp5490
g10
as(g405
g21
tp5491
(lp5492
g10
as(g420
g55
tp5493
(lp5494
g10
as(g144
g2929
tp5495
(lp5496
g10
as(g520
g85
tp5497
(lp5498
g10
as(g158
g81
tp5499
(lp5500
g10
as(g212
g85
tp5501
(lp5502
g37
as(g54
g85
tp5503
(lp5504
g10
as(g38
g85
tp5505
(lp5506
g37
as(g836
g55
tp5507
(lp5508
g10
as(g379
g7
tp5509
(lp5510
g10
as(g241
g45
tp5511
(lp5512
g167
as(g480
g27
tp5513
(lp5514
g10
as(g2188
g15
tp5515
(lp5516
g10
as(g559
g124
tp5517
(lp5518
g10
as(g461
g45
tp5519
(lp5520
g48
ag49
as(g11
g55
tp5521
(lp5522
g10
as(g2188
g7
tp5523
(lp5524
g10
as(g71
g34
tp5525
(lp5526
g10
as(g453
g91
tp5527
(lp5528
g37
as(g38
g91
tp5529
(lp5530
g37
as(g94
g120
tp5531
(lp5532
g10
as(g54
g45
tp5533
(lp5534
g48
ag49
as(g661
g91
tp5535
(lp5536
g37
as(g1945
g27
tp5537
(lp5538
g10
as.